(lp0
ccopy_reg
_reconstructor
p1
(cbase
Lessons
p2
c__builtin__
object
p3
Ntp4
Rp5
(dp6
S'sort'
p7
I1
sS'students'
p8
(lp9
S'81200278'
p10
aS'77831658'
p11
aS'56815156'
p12
aS'22826928'
p13
aS'96054456'
p14
aS'3168419'
p15
aS'59544049'
p16
aS'33930505'
p17
aS'74131924'
p18
aS'85335143'
p19
aS'5298748'
p20
aS'28359697'
p21
aS'43680781'
p22
aS'247918'
p23
aS'54026378'
p24
aS'11068043'
p25
aS'29526540'
p26
aS'44868097'
p27
aS'58522654'
p28
aS'24613625'
p29
aS'56749879'
p30
aS'22731474'
p31
aS'30195935'
p32
aS'20883994'
p33
aS'7308727'
p34
aS'88176729'
p35
aS'73236988'
p36
aS'89985072'
p37
aS'4568018'
p38
aS'53202517'
p39
aS'21964491'
p40
aS'14591033'
p41
aS'14816774'
p42
aS'42196732'
p43
aS'6913074'
p44
aS'66120270'
p45
aS'64600457'
p46
aS'6723948'
p47
aS'79617364'
p48
aS'33877725'
p49
aS'21029457'
p50
aS'70878567'
p51
aS'96453361'
p52
aS'15051051'
p53
aS'30050930'
p54
asS'amount'
p55
S'45'
p56
sS'name'
p57
S'Bioinformatica'
p58
sS'group_name'
p59
S'hc'
p60
sbag1
(g2
g3
Ntp61
Rp62
(dp63
g7
I0
sg8
(lp64
S'82066165'
p65
aS'13284244'
p66
aS'42778953'
p67
aS'81385263'
p68
aS'44151631'
p69
aS'40791377'
p70
aS'5368702'
p71
aS'86988337'
p72
aS'12077419'
p73
aS'7957843'
p74
aS'15911353'
p75
aS'66701209'
p76
aS'41644639'
p77
aS'51673172'
p78
aS'50143947'
p79
aS'68315599'
p80
aS'75599734'
p81
aS'79033175'
p82
aS'54772132'
p83
aS'65852230'
p84
aS'11915563'
p85
aS'48308205'
p86
aS'72895450'
p87
aS'14383795'
p88
aS'51472074'
p89
aS'71839156'
p90
aS'49683101'
p91
aS'535689'
p92
aS'2317551'
p93
aS'84524083'
p94
aS'38499176'
p95
aS'11459236'
p96
aS'1766560'
p97
aS'99272880'
p98
aS'43689934'
p99
aS'10792879'
p100
aS'88855695'
p101
aS'47260040'
p102
aS'86291592'
p103
aS'1695839'
p104
aS'14303208'
p105
aS'11068043'
p106
aS'25994016'
p107
aS'13911001'
p108
ag108
aS'88596522'
p109
aS'74361881'
p110
aS'76802764'
p111
aS'63634350'
p112
aS'58522654'
p113
aS'44391517'
p114
aS'24613625'
p115
aS'53585410'
p116
aS'64418623'
p117
aS'30658799'
p118
aS'75664412'
p119
aS'3407554'
p120
ag120
aS'1665980'
p121
aS'72665524'
p122
aS'34872117'
p123
aS'27950803'
p124
aS'23215240'
p125
aS'92665222'
p126
aS'73236988'
p127
aS'42297781'
p128
aS'79167252'
p129
aS'89985072'
p130
aS'95631564'
p131
aS'83266686'
p132
aS'4568018'
p133
aS'53202517'
p134
aS'57595888'
p135
aS'9067939'
p136
aS'14309255'
p137
aS'75759231'
p138
aS'27187154'
p139
aS'32204977'
p140
aS'8464817'
p141
aS'55103073'
p142
aS'77896638'
p143
aS'60312776'
p144
aS'94687383'
p145
aS'6723948'
p146
aS'76661016'
p147
aS'5595824'
p148
aS'80135353'
p149
aS'26406342'
p150
aS'39459642'
p151
aS'34243356'
p152
aS'88752563'
p153
aS'11741347'
p154
aS'34110913'
p155
aS'46989508'
p156
aS'65675896'
p157
aS'14138904'
p158
aS'91250534'
p159
aS'88636924'
p160
aS'5085194'
p161
aS'98105190'
p162
aS'95007221'
p163
aS'31194811'
p164
aS'5892092'
p165
aS'65960683'
p166
aS'37770881'
p167
aS'2079771'
p168
aS'72796858'
p169
aS'48503689'
p170
aS'52715680'
p171
asg55
S'109'
p172
sg57
S'Compilerbouw'
p173
sg59
g60
sbag1
(g2
g3
Ntp174
Rp175
(dp176
g7
I0
sg8
(lp177
S'13534377'
p178
aS'50184318'
p179
aS'64296965'
p180
aS'42778953'
p181
aS'82689818'
p182
aS'51741554'
p183
aS'97135019'
p184
aS'46052388'
p185
aS'1075391'
p186
aS'45556081'
p187
aS'5517869'
p188
aS'33760909'
p189
aS'64393888'
p190
aS'50143947'
p191
aS'87758823'
p192
aS'31416266'
p193
aS'15902055'
p194
aS'34773179'
p195
aS'62701040'
p196
aS'48601268'
p197
aS'86291592'
p198
aS'22699561'
p199
aS'23547619'
p200
aS'3233378'
p201
aS'1696500'
p202
aS'58522654'
p203
aS'86000192'
p204
aS'4783858'
p205
aS'72577292'
p206
aS'54310617'
p207
aS'13092455'
p208
aS'17575088'
p209
aS'1665980'
p210
aS'96104167'
p211
aS'77240949'
p212
aS'29474737'
p213
aS'7308727'
p214
aS'76123484'
p215
aS'17222374'
p216
aS'35330349'
p217
aS'68601184'
p218
aS'64228258'
p219
aS'57595888'
p220
aS'21964491'
p221
aS'42171678'
p222
aS'43027916'
p223
aS'28357474'
p224
aS'42196732'
p225
aS'77896638'
p226
aS'60312776'
p227
aS'26406342'
p228
aS'9332762'
p229
aS'29640619'
p230
aS'61443567'
p231
aS'73980360'
p232
aS'65960683'
p233
aS'37770881'
p234
aS'25106480'
p235
aS'53107172'
p236
aS'24277163'
p237
aS'75521763'
p238
asg55
S'61'
p239
sg57
S'Collectieve Intelligentie'
p240
sg59
g60
sbag1
(g2
g3
Ntp241
Rp242
(dp243
g7
I1
sg8
g64
sg55
g172
sg57
g173
sg59
g60
sbag1
(g2
g3
Ntp244
Rp245
(dp246
g7
I0
sg8
g9
sg55
g56
sg57
g58
sg59
g60
sbag1
(g2
g3
Ntp247
Rp248
(dp249
g7
I0
sg8
(lp250
S'70844780'
p251
aS'78136904'
p252
aS'22871048'
p253
aS'96554914'
p254
aS'20239127'
p255
aS'51415617'
p256
aS'36785409'
p257
aS'49922855'
p258
aS'86988337'
p259
aS'54569540'
p260
aS'22826928'
p261
aS'60661905'
p262
aS'13718298'
p263
aS'27370083'
p264
aS'20095994'
p265
aS'99453514'
p266
aS'5298748'
p267
aS'84524083'
p268
aS'92778619'
p269
aS'3685034'
p270
aS'33776961'
p271
aS'43680781'
p272
aS'77960666'
p273
aS'13092455'
p274
aS'27950803'
p275
aS'27805666'
p276
aS'37110913'
p277
aS'32044893'
p278
aS'38296757'
p279
aS'60352393'
p280
aS'4709948'
p281
aS'77392404'
p282
aS'37399898'
p283
aS'36213792'
p284
aS'82390428'
p285
aS'87830198'
p286
aS'90474003'
p287
aS'99975346'
p288
aS'70193386'
p289
aS'6913074'
p290
aS'61518436'
p291
aS'57086672'
p292
aS'41578612'
p293
aS'42406214'
p294
aS'68286356'
p295
aS'59753700'
p296
aS'13658563'
p297
aS'84449005'
p298
aS'24277163'
p299
aS'51052738'
p300
aS'52715680'
p301
asg55
S'51'
p302
sg57
S'Reflectie op de digitale cultuur'
p303
sg59
g60
sbag1
(g2
g3
Ntp304
Rp305
(dp306
g7
I1
sg8
(lp307
S'52311353'
p308
aS'42778953'
p309
aS'81385263'
p310
aS'54074680'
p311
aS'62872965'
p312
aS'91196968'
p313
aS'5517869'
p314
aS'90743504'
p315
aS'16011419'
p316
aS'93566383'
p317
aS'670011'
p318
aS'87758823'
p319
aS'48308205'
p320
aS'71839156'
p321
aS'36508571'
p322
aS'10149535'
p323
aS'31416266'
p324
aS'80709893'
p325
aS'38499176'
p326
aS'75005528'
p327
aS'16097870'
p328
aS'96118484'
p329
aS'34588570'
p330
aS'79937969'
p331
aS'36527838'
p332
aS'56872729'
p333
aS'42115591'
p334
aS'68409833'
p335
aS'61060652'
p336
aS'58866007'
p337
aS'3474870'
p338
aS'94955328'
p339
aS'35330349'
p340
aS'80998260'
p341
aS'55412918'
p342
aS'74182182'
p343
aS'4921119'
p344
aS'37399898'
p345
aS'94686490'
p346
aS'14591033'
p347
aS'42196732'
p348
aS'81218347'
p349
aS'77896638'
p350
aS'41578612'
p351
aS'55474917'
p352
aS'79617364'
p353
aS'34243356'
p354
aS'26172512'
p355
aS'16333449'
p356
aS'83210352'
p357
aS'32595335'
p358
aS'66570705'
p359
aS'23565001'
p360
aS'21311067'
p361
asg55
S'54'
p362
sg57
S'Lineaire Algebra'
p363
sg59
g60
sbag1
(g2
g3
Ntp364
Rp365
(dp366
g7
I0
sg8
(lp367
S'52311353'
p368
aS'64296965'
p369
aS'22871048'
p370
aS'18266644'
p371
aS'88737765'
p372
aS'36785409'
p373
aS'77831658'
p374
aS'56815156'
p375
aS'60661905'
p376
aS'13718298'
p377
aS'78822885'
p378
aS'85335143'
p379
aS'18477924'
p380
aS'14637758'
p381
aS'58480929'
p382
aS'34900967'
p383
aS'16097870'
p384
aS'75997788'
p385
aS'51542218'
p386
aS'62613937'
p387
aS'97838175'
p388
aS'42115591'
p389
aS'72586808'
p390
aS'23798155'
p391
aS'48357272'
p392
aS'80188025'
p393
aS'73302736'
p394
aS'94955328'
p395
aS'83443653'
p396
aS'4921119'
p397
aS'82854435'
p398
aS'43027916'
p399
aS'97019450'
p400
aS'65318664'
p401
aS'87830198'
p402
aS'70193386'
p403
aS'57086672'
p404
aS'41578612'
p405
aS'48678993'
p406
aS'5595824'
p407
aS'56544130'
p408
aS'78821918'
p409
aS'34243356'
p410
aS'5085194'
p411
aS'23565001'
p412
aS'73350019'
p413
aS'72456780'
p414
aS'33672995'
p415
aS'23658570'
p416
asg55
S'49'
p417
sg57
S'Analysemethoden en -technieken'
p418
sg59
g60
sbag1
(g2
g3
Ntp419
Rp420
(dp421
g7
I0
sg8
(lp422
S'13218321'
p423
aS'36748818'
p424
aS'50184318'
p425
aS'27916487'
p426
aS'5517869'
p427
aS'96082155'
p428
aS'68315599'
p429
aS'1181560'
p430
aS'66621166'
p431
aS'85335143'
p432
aS'49219163'
p433
aS'78243495'
p434
aS'58332004'
p435
aS'77376714'
p436
aS'33776961'
p437
aS'1766560'
p438
aS'43680781'
p439
aS'75997788'
p440
aS'27241113'
p441
aS'29526540'
p442
aS'36527838'
p443
aS'13911001'
p444
aS'99283252'
p445
aS'51650744'
p446
aS'46570285'
p447
aS'30658799'
p448
aS'3883025'
p449
aS'58699305'
p450
aS'18144425'
p451
aS'17222374'
p452
aS'4709948'
p453
aS'83415514'
p454
aS'49631542'
p455
aS'83266686'
p456
aS'78544592'
p457
aS'42171678'
p458
aS'14309255'
p459
aS'63111000'
p460
aS'41489515'
p461
aS'59111489'
p462
aS'64600457'
p463
aS'78821918'
p464
aS'89180944'
p465
aS'11741347'
p466
aS'58592894'
p467
aS'11996292'
p468
aS'47462856'
p469
aS'48198668'
p470
aS'70072978'
p471
aS'78443067'
p472
aS'15051051'
p473
aS'84449005'
p474
aS'24277163'
p475
aS'75521763'
p476
asg55
S'54'
p477
sg57
S'Moderne Databases'
p478
sg59
g60
sbag1
(g2
g3
Ntp479
Rp480
(dp481
g7
I1
sg8
g250
sg55
g302
sg57
g303
sg59
g60
sbag1
(g2
g3
Ntp482
Rp483
(dp484
g7
I1
sg8
g177
sg55
g239
sg57
g240
sg59
g60
sbag1
(g2
g3
Ntp485
Rp486
(dp487
g7
I0
sg8
(lp488
S'6709529'
p489
aS'56348773'
p490
aS'51741554'
p491
aS'97135019'
p492
aS'27064249'
p493
aS'70939718'
p494
aS'93361408'
p495
aS'59220392'
p496
aS'5615125'
p497
aS'87602030'
p498
aS'86807027'
p499
aS'96054456'
p500
aS'33760909'
p501
aS'46701583'
p502
aS'3678531'
p503
aS'65978354'
p504
aS'47932106'
p505
aS'26260141'
p506
aS'27298319'
p507
aS'85335143'
p508
aS'4546613'
p509
aS'53139134'
p510
aS'6939933'
p511
aS'38179241'
p512
aS'10149535'
p513
aS'73823548'
p514
aS'15902055'
p515
aS'75585647'
p516
aS'58040377'
p517
aS'16097870'
p518
aS'10792879'
p519
aS'75997788'
p520
aS'88855695'
p521
aS'81155296'
p522
aS'87900893'
p523
aS'78735049'
p524
aS'14303208'
p525
aS'47477884'
p526
aS'44868097'
p527
aS'56872729'
p528
aS'77306636'
p529
aS'63634350'
p530
aS'86000192'
p531
aS'4783858'
p532
aS'75623387'
p533
aS'27925117'
p534
aS'53585410'
p535
aS'46570285'
p536
aS'40141996'
p537
aS'86180471'
p538
aS'79888156'
p539
aS'58253841'
p540
aS'72665524'
p541
aS'82412626'
p542
aS'38296757'
p543
aS'58699305'
p544
aS'37279234'
p545
aS'62105897'
p546
aS'22168693'
p547
aS'65408517'
p548
aS'72526473'
p549
aS'48357272'
p550
aS'80188025'
p551
aS'73302736'
p552
aS'12091019'
p553
aS'14179347'
p554
aS'58469172'
p555
aS'34173695'
p556
aS'64228258'
p557
aS'79167252'
p558
aS'55412918'
p559
aS'74182182'
p560
aS'83415514'
p561
aS'83266686'
p562
aS'94686490'
p563
aS'14591033'
p564
aS'24875739'
p565
aS'78544592'
p566
aS'14816774'
p567
aS'27187154'
p568
aS'31306819'
p569
aS'6913074'
p570
aS'55530367'
p571
aS'64600457'
p572
aS'32705005'
p573
aS'23628642'
p574
aS'6723948'
p575
aS'11593163'
p576
aS'76661016'
p577
aS'45915482'
p578
aS'75446434'
p579
aS'79617364'
p580
aS'56544130'
p581
aS'88752563'
p582
aS'21029457'
p583
aS'58592894'
p584
aS'23565001'
p585
aS'62363761'
p586
aS'78443067'
p587
aS'9731271'
p588
aS'28957789'
p589
aS'61520025'
p590
aS'19717077'
p591
aS'33672995'
p592
aS'10609762'
p593
aS'23658570'
p594
asg55
S'106'
p595
sg57
S'Calculus 2'
p596
sg59
g60
sbag1
(g2
g3
Ntp597
Rp598
(dp599
g7
I0
sg8
(lp600
S'22871048'
p601
aS'86807027'
p602
aS'57467488'
p603
aS'59075181'
p604
aS'14941752'
p605
aS'71839156'
p606
aS'87210640'
p607
aS'45660925'
p608
aS'66122625'
p609
aS'75997788'
p610
aS'97417002'
p611
aS'31897288'
p612
aS'1696500'
p613
aS'4783858'
p614
aS'56749879'
p615
aS'61060652'
p616
aS'36903574'
p617
aS'37110913'
p618
aS'4353500'
p619
aS'76393508'
p620
aS'48357272'
p621
aS'44901052'
p622
aS'83443653'
p623
aS'92977271'
p624
aS'19858730'
p625
aS'20331158'
p626
aS'4568018'
p627
aS'14591033'
p628
aS'42171678'
p629
aS'14816774'
p630
aS'20830477'
p631
aS'97019450'
p632
aS'81218347'
p633
aS'79879876'
p634
aS'58736785'
p635
aS'11996292'
p636
aS'14138904'
p637
aS'22323043'
p638
aS'98105190'
p639
aS'13658563'
p640
aS'53775014'
p641
aS'53107172'
p642
aS'75521763'
p643
aS'94930277'
p644
asg55
S'44'
p645
sg57
S'Heuristieken 1'
p646
sg59
g60
sbag1
(g2
g3
Ntp647
Rp648
(dp649
g7
I0
sg8
(lp650
S'64296965'
p651
aS'78136904'
p652
aS'8522855'
p653
aS'41585485'
p654
aS'18266644'
p655
aS'5368702'
p656
aS'20239127'
p657
aS'5615125'
p658
aS'44940353'
p659
aS'14671406'
p660
aS'91196968'
p661
aS'77636749'
p662
aS'54569540'
p663
aS'96054456'
p664
aS'65003379'
p665
aS'39919665'
p666
aS'59075181'
p667
aS'59544049'
p668
aS'31633723'
p669
aS'7492204'
p670
aS'11915563'
p671
aS'58332004'
p672
aS'14398123'
p673
aS'91139627'
p674
aS'84524083'
p675
aS'94467156'
p676
aS'38499176'
p677
aS'3685034'
p678
aS'99272880'
p679
aS'10792879'
p680
aS'51542218'
p681
aS'38329455'
p682
aS'79366078'
p683
aS'78735049'
p684
aS'63634350'
p685
aS'51186803'
p686
aS'58522654'
p687
aS'42115591'
p688
aS'56749879'
p689
aS'84110134'
p690
aS'54310617'
p691
aS'10872825'
p692
aS'46570285'
p693
aS'22731474'
p694
aS'23798155'
p695
aS'20883994'
p696
aS'47605891'
p697
aS'77240949'
p698
aS'31247305'
p699
aS'36903574'
p700
aS'41527759'
p701
aS'72547110'
p702
aS'94955328'
p703
aS'58469172'
p704
aS'76924297'
p705
aS'74182182'
p706
aS'17823206'
p707
aS'39659121'
p708
aS'49631542'
p709
aS'20331158'
p710
aS'34262212'
p711
aS'14591033'
p712
aS'24875739'
p713
aS'63408522'
p714
aS'97019450'
p715
aS'27187154'
p716
aS'61518436'
p717
aS'97371272'
p718
aS'81218347'
p719
aS'79858178'
p720
aS'32705005'
p721
aS'23391676'
p722
aS'55474917'
p723
aS'82688900'
p724
aS'69086548'
p725
aS'63955238'
p726
aS'34243356'
p727
aS'37498675'
p728
aS'47462856'
p729
aS'89338938'
p730
aS'9731271'
p731
aS'56988998'
p732
aS'28957789'
p733
aS'39230359'
p734
asg55
S'84'
p735
sg57
S'Kansrekenen 2'
p736
sg59
g60
sbag1
(g2
g3
Ntp737
Rp738
(dp739
g7
I2
sg8
g9
sg55
g56
sg57
g58
sg59
g60
sbag1
(g2
g3
Ntp740
Rp741
(dp742
g7
I2
sg8
g177
sg55
g239
sg57
g240
sg59
g60
sbag1
(g2
g3
Ntp743
Rp744
(dp745
g7
I0
sg8
(lp746
S'64296965'
p747
aS'82689818'
p748
aS'23257088'
p749
aS'5517869'
p750
aS'62736669'
p751
aS'86988337'
p752
aS'96054456'
p753
aS'670011'
p754
aS'57467488'
p755
aS'47932106'
p756
aS'3168419'
p757
aS'4529208'
p758
aS'59397895'
p759
aS'13132925'
p760
aS'58332004'
p761
aS'5526560'
p762
aS'73823548'
p763
aS'54540997'
p764
aS'75005528'
p765
aS'58083680'
p766
aS'51542218'
p767
aS'247918'
p768
aS'29526540'
p769
aS'47477884'
p770
aS'77960666'
p771
aS'40434933'
p772
aS'56872729'
p773
aS'56749879'
p774
aS'13092455'
p775
aS'40141996'
p776
aS'86180471'
p777
aS'34872117'
p778
aS'64947290'
p779
aS'25077484'
p780
aS'27123462'
p781
aS'60352393'
p782
aS'76123484'
p783
aS'43902015'
p784
aS'17222374'
p785
aS'52552718'
p786
aS'12091019'
p787
aS'91527663'
p788
aS'26207525'
p789
aS'56121590'
p790
aS'4921119'
p791
aS'49631542'
p792
aS'94686490'
p793
aS'83869542'
p794
aS'43027916'
p795
aS'14816774'
p796
aS'90474003'
p797
aS'42196732'
p798
aS'15187217'
p799
aS'51566595'
p800
aS'77896638'
p801
aS'26406342'
p802
aS'39459642'
p803
aS'78821918'
p804
aS'88752563'
p805
aS'58592894'
p806
aS'11996292'
p807
aS'46989508'
p808
aS'29640619'
p809
aS'56191333'
p810
aS'37701751'
p811
aS'17092717'
p812
aS'5085194'
p813
aS'70072978'
p814
aS'72796858'
p815
aS'24277163'
p816
aS'72456780'
p817
aS'23658570'
p818
asg55
S'72'
p819
sg57
S'Databases 2'
p820
sg59
g60
sbag1
(g2
g3
Ntp821
Rp822
(dp823
g7
I1
sg8
g650
sg55
g735
sg57
g736
sg59
g60
sbag1
(g2
g3
Ntp824
Rp825
(dp826
g7
I0
sg8
g307
sg55
g362
sg57
g363
sg59
g60
sbag1
(g2
g3
Ntp827
Rp828
(dp829
g7
I0
sg8
(lp830
S'52311353'
p831
aS'70015932'
p832
aS'82872148'
p833
aS'22871048'
p834
aS'96554914'
p835
aS'14671406'
p836
aS'13718298'
p837
aS'27582862'
p838
aS'58565406'
p839
aS'3727435'
p840
aS'50143947'
p841
aS'26260141'
p842
aS'75599734'
p843
aS'31103066'
p844
aS'59544049'
p845
aS'31633723'
p846
aS'37830626'
p847
aS'11915563'
p848
aS'78243495'
p849
aS'4546613'
p850
aS'51593625'
p851
aS'1048485'
p852
aS'43460038'
p853
aS'62356458'
p854
aS'77376714'
p855
aS'94467156'
p856
aS'80709893'
p857
aS'48601268'
p858
aS'54026378'
p859
aS'11068043'
p860
aS'3233378'
p861
aS'44868097'
p862
aS'21095566'
p863
aS'42115591'
p864
aS'68409833'
p865
aS'99283252'
p866
aS'4783858'
p867
aS'84110134'
p868
aS'44671041'
p869
aS'61060652'
p870
aS'5976174'
p871
aS'31247305'
p872
aS'27950803'
p873
aS'62105897'
p874
aS'41527759'
p875
aS'65408517'
p876
aS'88176729'
p877
aS'40343779'
p878
aS'52552718'
p879
aS'48357272'
p880
aS'73302736'
p881
aS'73236988'
p882
aS'14072826'
p883
aS'9287708'
p884
aS'89985072'
p885
aS'95631564'
p886
aS'4568018'
p887
aS'14309255'
p888
aS'65318664'
p889
aS'28357474'
p890
aS'60312776'
p891
aS'55474917'
p892
aS'37744525'
p893
aS'45915482'
p894
aS'89180944'
p895
aS'33877725'
p896
aS'83210352'
p897
aS'29640619'
p898
aS'89338938'
p899
aS'41153310'
p900
aS'22323043'
p901
aS'78443067'
p902
aS'25106480'
p903
aS'58074656'
p904
aS'52715680'
p905
asg55
S'75'
p906
sg57
S'Software engineering'
p907
sg59
g60
sbag1
(g2
g3
Ntp908
Rp909
(dp910
g7
I0
sg8
(lp911
g831
ag832
ag833
ag834
ag835
ag836
ag837
ag838
ag839
ag840
ag841
ag842
ag843
ag844
ag845
ag846
ag847
ag848
ag849
ag850
ag851
ag852
ag853
ag854
ag855
ag856
ag857
ag858
ag859
ag860
ag861
ag862
ag863
ag864
ag865
ag866
ag867
ag868
ag869
ag870
asg55
S'40'
p912
sg57
g907
sg59
S'pr'
p913
sbag1
(g2
g3
Ntp914
Rp915
(dp916
g7
I1
sg8
(lp917
g871
ag872
ag873
ag874
ag875
ag876
ag877
ag878
ag879
ag880
ag881
ag882
ag883
ag884
ag885
ag886
ag887
ag888
ag889
ag890
ag891
ag892
ag893
ag894
ag895
ag896
ag897
ag898
ag899
ag900
ag901
ag902
ag903
ag904
ag905
asg55
g912
sg57
g907
sg59
g913
sbag1
(g2
g3
Ntp918
Rp919
(dp920
g7
I0
sg8
(lp921
S'40791377'
p922
aS'46701583'
p923
aS'49683101'
p924
aS'94467156'
p925
aS'3685034'
p926
aS'26857113'
p927
aS'90067329'
p928
aS'23798155'
p929
aS'5976174'
p930
aS'77240949'
p931
aS'85236626'
p932
aS'38296757'
p933
aS'33252501'
p934
aS'63111000'
p935
aS'27187154'
p936
aS'61518436'
p937
aS'67625383'
p938
aS'37744525'
p939
aS'39459642'
p940
aS'15051051'
p941
aS'56988998'
p942
aS'2079771'
p943
asg55
S'22'
p944
sg57
S'Machine Learning'
p945
sg59
g60
sbag1
(g2
g3
Ntp946
Rp947
(dp948
g7
I0
sg8
(lp949
g489
ag490
ag491
ag492
ag493
ag494
ag495
ag496
ag497
ag498
ag499
ag500
ag501
ag502
ag503
ag504
ag505
ag506
ag507
ag508
ag509
ag510
ag511
ag512
ag513
ag514
ag515
ag516
ag517
ag518
ag519
ag520
ag521
ag522
ag523
ag524
ag525
ag526
ag527
ag528
asg55
S'40'
p950
sg57
g596
sg59
S'wc'
p951
sbag1
(g2
g3
Ntp952
Rp953
(dp954
g7
I0
sg8
(lp955
S'36785409'
p956
aS'77636749'
p957
aS'12077419'
p958
aS'58565406'
p959
aS'76487754'
p960
aS'68315599'
p961
aS'85335143'
p962
aS'93041523'
p963
aS'48308205'
p964
aS'7106649'
p965
aS'77264363'
p966
aS'14383795'
p967
aS'10149535'
p968
aS'21192048'
p969
aS'92496780'
p970
aS'6249823'
p971
aS'43680781'
p972
aS'23547619'
p973
aS'40434933'
p974
aS'70336464'
p975
aS'4697362'
p976
aS'75664412'
p977
aS'37110913'
p978
aS'44901052'
p979
aS'47982619'
p980
aS'14309255'
p981
aS'97371272'
p982
aS'32204977'
p983
aS'41578612'
p984
aS'69086548'
p985
aS'26406342'
p986
aS'9332762'
p987
aS'11996292'
p988
aS'89338938'
p989
aS'22323043'
p990
aS'12430748'
p991
aS'31194811'
p992
aS'75521763'
p993
asg55
S'38'
p994
sg57
S'Technology for games'
p995
sg59
g60
sbag1
(g2
g3
Ntp996
Rp997
(dp998
g7
I1
sg8
(lp999
S'70015932'
p1000
aS'82689818'
p1001
aS'45556081'
p1002
aS'29718115'
p1003
aS'49683101'
p1004
aS'43460038'
p1005
aS'10149535'
p1006
aS'13798030'
p1007
aS'40434933'
p1008
aS'72683344'
p1009
aS'27925117'
p1010
aS'72577292'
p1011
aS'23798155'
p1012
aS'58866007'
p1013
aS'34872117'
p1014
aS'83266686'
p1015
aS'20331158'
p1016
aS'28618400'
p1017
aS'89180944'
p1018
aS'14138904'
p1019
aS'59289233'
p1020
asg55
S'21'
p1021
sg57
S'Architectuur en computerorganisatie'
p1022
sg59
g60
sbag1
(g2
g3
Ntp1023
Rp1024
(dp1025
g7
I1
sg8
(lp1026
S'76903244'
p1027
aS'53512831'
p1028
aS'27064249'
p1029
aS'69459473'
p1030
aS'5615125'
p1031
aS'24891081'
p1032
aS'67073567'
p1033
aS'78243495'
p1034
aS'72895450'
p1035
aS'49908313'
p1036
aS'43460038'
p1037
aS'41790793'
p1038
aS'6249823'
p1039
aS'14303208'
p1040
aS'40434933'
p1041
aS'72577292'
p1042
aS'1137946'
p1043
aS'2416751'
p1044
aS'20618153'
p1045
aS'3474870'
p1046
aS'76123484'
p1047
aS'43902015'
p1048
aS'64228258'
p1049
aS'77392404'
p1050
aS'53202517'
p1051
aS'66034145'
p1052
aS'57086672'
p1053
aS'22288615'
p1054
aS'76648468'
p1055
aS'89180944'
p1056
aS'33877725'
p1057
aS'16333449'
p1058
aS'10698627'
p1059
aS'61443567'
p1060
aS'17092717'
p1061
aS'28358060'
p1062
aS'94930277'
p1063
aS'39230359'
p1064
aS'14847953'
p1065
asg55
S'39'
p1066
sg57
S'Webprogrammeren en databases'
p1067
sg59
g60
sbag1
(g2
g3
Ntp1068
Rp1069
(dp1070
g7
I0
sg8
(lp1071
S'82689818'
p1072
aS'81385263'
p1073
aS'78136904'
p1074
aS'8522855'
p1075
aS'41585485'
p1076
aS'19540225'
p1077
aS'14671406'
p1078
aS'86988337'
p1079
aS'12077419'
p1080
aS'46701583'
p1081
aS'66433883'
p1082
aS'50143947'
p1083
aS'57467488'
p1084
aS'26260141'
p1085
aS'27298319'
p1086
aS'72895450'
p1087
aS'77376714'
p1088
aS'15902055'
p1089
aS'88596522'
p1090
aS'21095566'
p1091
aS'53585410'
p1092
aS'67817269'
p1093
aS'34765676'
p1094
aS'1665980'
p1095
aS'5976174'
p1096
aS'36903574'
p1097
aS'64947290'
p1098
aS'3474870'
p1099
aS'41527759'
p1100
aS'43902015'
p1101
aS'40343779'
p1102
aS'91527663'
p1103
aS'64554442'
p1104
aS'21964491'
p1105
aS'51566595'
p1106
aS'51509565'
p1107
aS'23983476'
p1108
aS'3707829'
p1109
aS'58592894'
p1110
aS'96453361'
p1111
aS'44828429'
p1112
aS'23652927'
p1113
aS'52715680'
p1114
asg55
S'43'
p1115
sg57
S'Algoritmen en complexiteit'
p1116
sg59
g60
sbag1
(g2
g3
Ntp1117
Rp1118
(dp1119
g7
I1
sg8
g921
sg55
g944
sg57
g945
sg59
g60
sbag1
(g2
g3
Ntp1120
Rp1121
(dp1122
g7
I1
sg8
g955
sg55
g994
sg57
g995
sg59
g60
sbag1
(g2
g3
Ntp1123
Rp1124
(dp1125
g7
I1
sg8
(lp1126
g787
ag788
ag789
ag790
ag791
ag792
ag793
ag794
ag795
ag796
ag797
ag798
ag799
ag800
ag801
ag802
ag803
ag804
ag805
ag806
ag807
ag808
ag809
ag810
ag811
ag812
ag813
ag814
ag815
ag816
ag817
ag818
asg55
S'40'
p1127
sg57
g820
sg59
g951
sbag1
(g2
g3
Ntp1128
Rp1129
(dp1130
g7
I0
sg8
g999
sg55
g1021
sg57
g1022
sg59
g60
sbag1
(g2
g3
Ntp1131
Rp1132
(dp1133
g7
I0
sg8
(lp1134
S'81385263'
p1135
aS'81200278'
p1136
aS'5368702'
p1137
aS'19214659'
p1138
aS'93566383'
p1139
aS'4546613'
p1140
aS'38179241'
p1141
aS'69634191'
p1142
aS'81155296'
p1143
aS'21677389'
p1144
aS'23547619'
p1145
aS'34765676'
p1146
aS'76924297'
p1147
aS'37399898'
p1148
aS'66034145'
p1149
aS'28055464'
p1150
aS'76661016'
p1151
aS'3707829'
p1152
aS'2550487'
p1153
aS'20374340'
p1154
aS'37701751'
p1155
aS'65675896'
p1156
aS'64768422'
p1157
aS'44828429'
p1158
aS'14847953'
p1159
asg55
S'25'
p1160
sg57
S'Interactie-ontwerp'
p1161
sg59
g60
sbag1
(g2
g3
Ntp1162
Rp1163
(dp1164
g7
I0
sg8
(lp1165
S'1886996'
p1166
aS'81200278'
p1167
aS'87602030'
p1168
aS'52304977'
p1169
aS'33760909'
p1170
aS'15249775'
p1171
aS'82968410'
p1172
aS'670011'
p1173
aS'78243495'
p1174
aS'7106649'
p1175
aS'84524083'
p1176
aS'58040377'
p1177
aS'16097870'
p1178
aS'31897288'
p1179
aS'63634350'
p1180
aS'27925117'
p1181
aS'22731474'
p1182
aS'34765676'
p1183
aS'5976174'
p1184
aS'85236626'
p1185
aS'72652638'
p1186
aS'83869542'
p1187
aS'43027916'
p1188
aS'81022997'
p1189
aS'99975346'
p1190
aS'57086672'
p1191
aS'51566595'
p1192
aS'48678993'
p1193
aS'5739011'
p1194
aS'58736785'
p1195
aS'35315956'
p1196
aS'61443567'
p1197
asg55
S'32'
p1198
sg57
S'Heuristieken 2'
p1199
sg59
g60
sbag1
(g2
g3
Ntp1200
Rp1201
(dp1202
g7
I0
sg8
(lp1203
S'22871048'
p1204
aS'62872965'
p1205
aS'5517869'
p1206
aS'74131924'
p1207
aS'27298319'
p1208
aS'11915563'
p1209
aS'70113753'
p1210
aS'36508571'
p1211
aS'62356458'
p1212
aS'16097870'
p1213
aS'54026378'
p1214
aS'68409833'
p1215
aS'37110913'
p1216
aS'61611295'
p1217
aS'52552718'
p1218
aS'44901052'
p1219
aS'19858730'
p1220
aS'51566595'
p1221
aS'88627897'
p1222
aS'39459642'
p1223
aS'34806836'
p1224
aS'72796858'
p1225
asg55
S'22'
p1226
sg57
S'Autonomous Agents 2'
p1227
sg59
g60
sbag1
(g2
g3
Ntp1228
Rp1229
(dp1230
g7
I0
sg8
(lp1231
g65
ag66
ag67
ag68
ag69
ag70
ag71
ag72
ag73
ag74
ag75
ag76
ag77
ag78
ag79
ag80
ag81
ag82
ag83
ag84
ag85
ag86
ag87
ag88
ag89
ag90
ag91
ag92
ag93
ag94
ag95
ag96
ag97
ag98
ag99
ag100
ag101
ag102
ag103
ag104
asg55
S'40'
p1232
sg57
g173
sg59
g951
sbag1
(g2
g3
Ntp1233
Rp1234
(dp1235
g7
I0
sg8
(lp1236
g831
ag832
ag833
ag834
ag835
ag836
ag837
ag838
ag839
ag840
ag841
ag842
ag843
ag844
ag845
ag846
ag847
ag848
ag849
ag850
ag851
ag852
ag853
ag854
ag855
ag856
ag857
ag858
ag859
ag860
ag861
ag862
ag863
ag864
ag865
ag866
ag867
ag868
ag869
ag870
asg55
S'40'
p1237
sg57
g907
sg59
g951
sbag1
(g2
g3
Ntp1238
Rp1239
(dp1240
g7
I0
sg8
(lp1241
g1072
ag1073
ag1074
ag1075
ag1076
ag1077
ag1078
ag1079
ag1080
ag1081
ag1082
ag1083
ag1084
ag1085
ag1086
ag1087
ag1088
ag1089
ag1090
ag1091
ag1092
ag1093
ag1094
ag1095
ag1096
asg55
S'25'
p1242
sg57
g1116
sg59
g951
sbag1
(g2
g3
Ntp1243
Rp1244
(dp1245
g7
I1
sg8
(lp1246
g1097
ag1098
ag1099
ag1100
ag1101
ag1102
ag1103
ag1104
ag1105
ag1106
ag1107
ag1108
ag1109
ag1110
ag1111
ag1112
ag1113
ag1114
asg55
g1242
sg57
g1116
sg59
g951
sbag1
(g2
g3
Ntp1247
Rp1248
(dp1249
g7
I2
sg8
(lp1250
g143
ag144
ag145
ag146
ag147
ag148
ag149
ag150
ag151
ag152
ag153
ag154
ag155
ag156
ag157
ag158
ag159
ag160
ag161
ag162
ag163
ag164
ag165
ag166
ag167
ag168
ag169
ag170
ag171
asg55
S'40'
p1251
sg57
g173
sg59
g913
sbag1
(g2
g3
Ntp1252
Rp1253
(dp1254
g7
I0
sg8
(lp1255
g747
ag748
ag749
ag750
ag751
ag752
ag753
ag754
ag755
ag756
ag757
ag758
ag759
ag760
ag761
ag762
ag763
ag764
ag765
ag766
ag767
ag768
ag769
ag770
ag771
ag772
ag773
ag774
ag775
ag776
ag777
ag778
ag779
ag780
ag781
ag782
ag783
ag784
ag785
ag786
asg55
g1127
sg57
g820
sg59
g951
sbag1
(g2
g3
Ntp1256
Rp1257
(dp1258
g7
I1
sg8
(lp1259
S'52311353'
p1260
aS'93023961'
p1261
aS'81200278'
p1262
aS'91196968'
p1263
aS'50143947'
p1264
aS'74131924'
p1265
aS'45414528'
p1266
aS'19337738'
p1267
aS'99453514'
p1268
aS'87314964'
p1269
aS'66122625'
p1270
aS'87900893'
p1271
aS'13116738'
p1272
aS'37110913'
p1273
aS'17823206'
p1274
aS'21964491'
p1275
aS'81022997'
p1276
aS'51566595'
p1277
aS'13996448'
p1278
aS'37744525'
p1279
aS'25330192'
p1280
aS'68360259'
p1281
aS'59753700'
p1282
aS'70878567'
p1283
aS'97136582'
p1284
aS'22323043'
p1285
aS'98780382'
p1286
asg55
S'27'
p1287
sg57
S'Data Mining'
p1288
sg59
g60
sbag1
(g2
g3
Ntp1289
Rp1290
(dp1291
g7
I0
sg8
g1026
sg55
g1066
sg57
g1067
sg59
g60
sbag1
(g2
g3
Ntp1292
Rp1293
(dp1294
g7
I1
sg8
g1203
sg55
g1226
sg57
g1227
sg59
g60
sbag1
(g2
g3
Ntp1295
Rp1296
(dp1297
g7
I0
sg8
(lp1298
g1072
ag1073
ag1074
ag1075
ag1076
ag1077
ag1078
ag1079
ag1080
ag1081
ag1082
ag1083
ag1084
ag1085
ag1086
ag1087
ag1088
ag1089
ag1090
ag1091
ag1092
ag1093
ag1094
ag1095
ag1096
asg55
S'25'
p1299
sg57
g1116
sg59
g913
sbag1
(g2
g3
Ntp1300
Rp1301
(dp1302
g7
I0
sg8
(lp1303
g601
ag602
ag603
ag604
ag605
ag606
ag607
ag608
ag609
ag610
ag611
ag612
ag613
ag614
ag615
ag616
ag617
ag618
ag619
ag620
ag621
ag622
ag623
ag624
ag625
asg55
S'25'
p1304
sg57
g646
sg59
g951
sbag1
(g2
g3
Ntp1305
Rp1306
(dp1307
g7
I0
sg8
(lp1308
g65
ag66
ag67
ag68
ag69
ag70
ag71
ag72
ag73
ag74
ag75
ag76
ag77
ag78
ag79
ag80
ag81
ag82
ag83
ag84
ag85
ag86
ag87
ag88
ag89
ag90
ag91
ag92
ag93
ag94
ag95
ag96
ag97
ag98
ag99
ag100
ag101
ag102
ag103
ag104
asg55
g1251
sg57
g173
sg59
g913
sbag1
(g2
g3
Ntp1309
Rp1310
(dp1311
g7
I1
sg8
(lp1312
g626
ag627
ag628
ag629
ag630
ag631
ag632
ag633
ag634
ag635
ag636
ag637
ag638
ag639
ag640
ag641
ag642
ag643
ag644
asg55
g1304
sg57
g646
sg59
g951
sbag1
(g2
g3
Ntp1313
Rp1314
(dp1315
g7
I2
sg8
(lp1316
g143
ag144
ag145
ag146
ag147
ag148
ag149
ag150
ag151
ag152
ag153
ag154
ag155
ag156
ag157
ag158
ag159
ag160
ag161
ag162
ag163
ag164
ag165
ag166
ag167
ag168
ag169
ag170
ag171
asg55
g1232
sg57
g173
sg59
g951
sbag1
(g2
g3
Ntp1317
Rp1318
(dp1319
g7
I1
sg8
(lp1320
g529
ag530
ag531
ag532
ag533
ag534
ag535
ag536
ag537
ag538
ag539
ag540
ag541
ag542
ag543
ag544
ag545
ag546
ag547
ag548
ag549
ag550
ag551
ag552
ag553
ag554
ag555
ag556
ag557
ag558
ag559
ag560
ag561
ag562
ag563
ag564
ag565
ag566
ag567
ag568
asg55
g950
sg57
g596
sg59
g951
sbag1
(g2
g3
Ntp1321
Rp1322
(dp1323
g7
I2
sg8
(lp1324
g569
ag570
ag571
ag572
ag573
ag574
ag575
ag576
ag577
ag578
ag579
ag580
ag581
ag582
ag583
ag584
ag585
ag586
ag587
ag588
ag589
ag590
ag591
ag592
ag593
ag594
asg55
g950
sg57
g596
sg59
g951
sbag1
(g2
g3
Ntp1325
Rp1326
(dp1327
g7
I1
sg8
(lp1328
g1097
ag1098
ag1099
ag1100
ag1101
ag1102
ag1103
ag1104
ag1105
ag1106
ag1107
ag1108
ag1109
ag1110
ag1111
ag1112
ag1113
ag1114
asg55
g1299
sg57
g1116
sg59
g913
sbag1
(g2
g3
Ntp1329
Rp1330
(dp1331
g7
I0
sg8
(lp1332
sg55
S'21'
p1333
sg57
S'Informatie- en organisatieontwerp'
p1334
sg59
g60
sbag1
(g2
g3
Ntp1335
Rp1336
(dp1337
g7
I1
sg8
g1332
sg55
g1333
sg57
g1334
sg59
g60
sbag1
(g2
g3
Ntp1338
Rp1339
(dp1340
g7
I1
sg8
(lp1341
g105
ag106
ag107
ag108
ag108
ag109
ag110
ag111
ag112
ag113
ag114
ag115
ag116
ag117
ag118
ag119
ag120
ag120
ag121
ag122
ag123
ag124
ag125
ag126
ag127
ag128
ag129
ag130
ag131
ag132
ag133
ag134
ag135
ag136
ag137
ag138
ag139
ag140
ag141
ag142
asg55
g1232
sg57
g173
sg59
g951
sbag1
(g2
g3
Ntp1342
Rp1343
(dp1344
g7
I0
sg8
g1259
sg55
g1287
sg57
g1288
sg59
g60
sbag1
(g2
g3
Ntp1345
Rp1346
(dp1347
g7
I1
sg8
(lp1348
g105
ag106
ag107
ag108
ag108
ag109
ag110
ag111
ag112
ag113
ag114
ag115
ag116
ag117
ag118
ag119
ag120
ag120
ag121
ag122
ag123
ag124
ag125
ag126
ag127
ag128
ag129
ag130
ag131
ag132
ag133
ag134
ag135
ag136
ag137
ag138
ag139
ag140
ag141
ag142
asg55
g1251
sg57
g173
sg59
g913
sbag1
(g2
g3
Ntp1349
Rp1350
(dp1351
g7
I1
sg8
g1134
sg55
g1160
sg57
g1161
sg59
g60
sbag1
(g2
g3
Ntp1352
Rp1353
(dp1354
g7
I1
sg8
(lp1355
g871
ag872
ag873
ag874
ag875
ag876
ag877
ag878
ag879
ag880
ag881
ag882
ag883
ag884
ag885
ag886
ag887
ag888
ag889
ag890
ag891
ag892
ag893
ag894
ag895
ag896
ag897
ag898
ag899
ag900
ag901
ag902
ag903
ag904
ag905
asg55
g1237
sg57
g907
sg59
g951
sbag1
(g2
g3
Ntp1356
Rp1357
(dp1358
g7
I0
sg8
(lp1359
S'1886996'
p1360
aS'70844780'
p1361
aS'78136904'
p1362
aS'27064249'
p1363
aS'86807027'
p1364
aS'3168419'
p1365
aS'75997788'
p1366
aS'23547619'
p1367
aS'62613937'
p1368
aS'47477884'
p1369
aS'72683344'
p1370
aS'72577292'
p1371
aS'20883994'
p1372
aS'72665524'
p1373
aS'60352393'
p1374
aS'92665222'
p1375
aS'40633534'
p1376
aS'28618400'
p1377
aS'39429093'
p1378
aS'14847953'
p1379
asg55
S'20'
p1380
sg57
S'Advanced Heuristics'
p1381
sg59
g60
sbag1
(g2
g3
Ntp1382
Rp1383
(dp1384
g7
I0
sg8
(lp1385
g10
ag11
ag12
ag13
ag14
ag15
ag16
ag17
ag18
ag19
ag20
ag21
ag22
ag23
ag24
ag25
ag26
ag27
ag28
ag29
asg55
S'20'
p1386
sg57
g58
sg59
g951
sbag1
(g2
g3
Ntp1387
Rp1388
(dp1389
g7
I0
sg8
(lp1390
S'82066165'
p1391
aS'8522855'
p1392
aS'69459473'
p1393
aS'88737765'
p1394
aS'87602030'
p1395
aS'66701209'
p1396
aS'41644639'
p1397
aS'46701583'
p1398
aS'51673172'
p1399
aS'14398123'
p1400
aS'5526560'
p1401
aS'94467156'
p1402
aS'34773179'
p1403
aS'25994016'
p1404
aS'74361881'
p1405
asg55
S'15'
p1406
sg57
S'Project Genetic Algorithms'
p1407
sg59
g913
sbag1
(g2
g3
Ntp1408
Rp1409
(dp1410
g7
I0
sg8
(lp1411
sg55
S'15'
p1412
sg57
S'Zoeken, sturen en bewegen'
p1413
sg59
g913
sbag1
(g2
g3
Ntp1414
Rp1415
(dp1416
g7
I1
sg8
(lp1417
S'1048485'
p1418
aS'535689'
p1419
aS'38499176'
p1420
aS'59887191'
p1421
aS'86291592'
p1422
aS'21677389'
p1423
aS'1696500'
p1424
aS'16912993'
p1425
aS'72586808'
p1426
aS'30195935'
p1427
aS'75664412'
p1428
aS'85284256'
p1429
aS'31247305'
p1430
aS'72665524'
p1431
aS'36903574'
p1432
aS'123355'
p1433
aS'3883025'
p1434
aS'4353500'
p1435
aS'25557516'
p1436
aS'7308727'
p1437
asg55
S'20'
p1438
sg57
S'Netwerken en systeembeveiliging'
p1439
sg59
g913
sbag1
(g2
g3
Ntp1440
Rp1441
(dp1442
g7
I2
sg8
(lp1443
g463
ag464
ag465
ag466
ag467
ag468
ag469
ag470
ag471
ag472
ag473
ag474
ag475
ag476
asg55
S'20'
p1444
sg57
g478
sg59
g951
sbag1
(g2
g3
Ntp1445
Rp1446
(dp1447
g7
I2
sg8
(lp1448
g50
ag51
ag52
ag53
ag54
asg55
S'20'
p1449
sg57
g58
sg59
g913
sbag1
(g2
g3
Ntp1450
Rp1451
(dp1452
g7
I1
sg8
(lp1453
g1214
ag1215
ag1216
ag1217
ag1218
ag1219
ag1220
ag1221
ag1222
ag1223
asg55
S'10'
p1454
sg57
g1227
sg59
g913
sbag1
(g2
g3
Ntp1455
Rp1456
(dp1457
g7
I5
sg8
(lp1458
sg55
S'0'
p1459
sg57
S'empty'
p1460
sg59
g60
sbag1
(g2
g3
Ntp1461
Rp1462
(dp1463
g7
I9
sg8
g1458
sg55
g1459
sg57
g1460
sg59
g60
sbag1
(g2
g3
Ntp1464
Rp1465
(dp1466
g7
I0
sg8
(lp1467
g1260
ag1261
ag1262
ag1263
ag1264
ag1265
ag1266
ag1267
ag1268
ag1269
asg55
S'10'
p1468
sg57
g1288
sg59
g951
sbag1
(g2
g3
Ntp1469
Rp1470
(dp1471
g7
I0
sg8
(lp1472
S'54395877'
p1473
aS'41585485'
p1474
aS'28943658'
p1475
aS'73893840'
p1476
aS'23257088'
p1477
aS'91196968'
p1478
aS'86988337'
p1479
aS'86807027'
p1480
aS'22826928'
p1481
aS'60661905'
p1482
aS'96054456'
p1483
aS'27582862'
p1484
aS'15249775'
p1485
aS'46701583'
p1486
aS'66433883'
p1487
aS'3678531'
p1488
aS'64393888'
p1489
aS'93566383'
p1490
aS'670011'
p1491
aS'7492204'
p1492
asg55
S'20'
p1493
sg57
S'Programmeren in Java 2'
p1494
sg59
g913
sbag1
(g2
g3
Ntp1495
Rp1496
(dp1497
g7
I3
sg8
(lp1498
g238
asg55
S'20'
p1499
sg57
g240
sg59
g913
sbag1
(g2
g3
Ntp1500
Rp1501
(dp1502
g7
I0
sg8
(lp1503
g1204
ag1205
ag1206
ag1207
ag1208
ag1209
ag1210
ag1211
ag1212
ag1213
asg55
g1454
sg57
g1227
sg59
g913
sbag1
(g2
g3
Ntp1504
Rp1505
(dp1506
g7
I1
sg8
(lp1507
g1047
ag1048
ag1049
ag1050
ag1051
ag1052
ag1053
ag1054
ag1055
ag1056
ag1057
ag1058
ag1059
ag1060
ag1061
ag1062
ag1063
ag1064
ag1065
asg55
S'20'
p1508
sg57
g1067
sg59
g913
sbag1
(g2
g3
Ntp1509
Rp1510
(dp1511
g7
I2
sg8
(lp1512
g1224
ag1225
asg55
S'10'
p1513
sg57
g1227
sg59
g951
sbag1
(g2
g3
Ntp1514
Rp1515
(dp1516
g7
I0
sg8
(lp1517
g423
ag424
ag425
ag426
ag427
ag428
ag429
ag430
ag431
ag432
ag433
ag434
ag435
ag436
ag437
ag438
ag439
ag440
ag441
ag442
asg55
g1444
sg57
g478
sg59
g951
sbag1
(g2
g3
Ntp1518
Rp1519
(dp1520
g7
I0
sg8
(lp1521
S'13284244'
p1522
aS'42778953'
p1523
aS'63939720'
p1524
aS'34691309'
p1525
aS'77831658'
p1526
aS'86807027'
p1527
aS'7957843'
p1528
aS'19214659'
p1529
aS'63573738'
p1530
aS'37419523'
p1531
aS'40911986'
p1532
aS'14941752'
p1533
aS'48308205'
p1534
aS'72895450'
p1535
aS'6939933'
p1536
asg55
S'15'
p1537
sg57
S'Project Numerical Recipes'
p1538
sg59
g913
sbag1
(g2
g3
Ntp1539
Rp1540
(dp1541
g7
I3
sg8
(lp1542
S'94955328'
p1543
aS'90296821'
p1544
aS'4709948'
p1545
aS'58469172'
p1546
aS'68601184'
p1547
aS'92977271'
p1548
aS'79167252'
p1549
aS'17823206'
p1550
aS'39905995'
p1551
aS'4921119'
p1552
aS'83415514'
p1553
aS'47982619'
p1554
aS'88263855'
p1555
aS'37399898'
p1556
aS'64053722'
p1557
aS'34262212'
p1558
aS'21964491'
p1559
aS'20830477'
p1560
aS'97019450'
p1561
aS'73196865'
p1562
aS'63111000'
p1563
aS'27187154'
p1564
aS'6913074'
p1565
aS'8464817'
p1566
aS'51791169'
p1567
aS'77896638'
p1568
aS'23983476'
p1569
aS'64600457'
p1570
aS'22288615'
p1571
aS'23391676'
p1572
aS'94687383'
p1573
aS'6723948'
p1574
aS'55474917'
p1575
aS'13996448'
p1576
aS'37744525'
p1577
aS'80135353'
p1578
aS'39459642'
p1579
aS'2550487'
p1580
aS'79879876'
p1581
aS'7386961'
p1582
aS'9332762'
p1583
aS'10698627'
p1584
aS'29640619'
p1585
aS'41153310'
p1586
aS'61443567'
p1587
aS'70072978'
p1588
aS'9731271'
p1589
aS'12782624'
p1590
aS'48503689'
p1591
aS'23658570'
p1592
asg55
g1493
sg57
g1494
sg59
g913
sbag1
(g2
g3
Ntp1593
Rp1594
(dp1595
g7
I3
sg8
(lp1596
S'97136582'
p1597
aS'62363761'
p1598
aS'9731271'
p1599
aS'72456780'
p1600
asg55
g1438
sg57
g1439
sg59
g913
sbag1
(g2
g3
Ntp1601
Rp1602
(dp1603
g7
I2
sg8
(lp1604
sg55
g1412
sg57
g1413
sg59
g913
sbag1
(g2
g3
Ntp1605
Rp1606
(dp1607
g7
I0
sg8
(lp1608
g1260
ag1261
ag1262
ag1263
ag1264
ag1265
ag1266
ag1267
ag1268
ag1269
asg55
S'10'
p1609
sg57
g1288
sg59
g913
sbag1
(g2
g3
Ntp1610
Rp1611
(dp1612
g7
I2
sg8
(lp1613
g463
ag464
ag465
ag466
ag467
ag468
ag469
ag470
ag471
ag472
ag473
ag474
ag475
ag476
asg55
S'20'
p1614
sg57
g478
sg59
g913
sbag1
(g2
g3
Ntp1615
Rp1616
(dp1617
g7
I0
sg8
(lp1618
g1204
ag1205
ag1206
ag1207
ag1208
ag1209
ag1210
ag1211
ag1212
ag1213
asg55
g1513
sg57
g1227
sg59
g951
sbag1
(g2
g3
Ntp1619
Rp1620
(dp1621
g7
I0
sg8
(lp1622
g1360
ag1361
ag1362
ag1363
ag1364
ag1365
ag1366
ag1367
ag1368
ag1369
asg55
S'10'
p1623
sg57
g1381
sg59
g913
sbag1
(g2
g3
Ntp1624
Rp1625
(dp1626
g7
I0
sg8
(lp1627
g10
ag11
ag12
ag13
ag14
ag15
ag16
ag17
ag18
ag19
ag20
ag21
ag22
ag23
ag24
ag25
ag26
ag27
ag28
ag29
asg55
g1449
sg57
g58
sg59
g913
sbag1
(g2
g3
Ntp1628
Rp1629
(dp1630
g7
I4
sg8
g1542
sg55
g1493
sg57
g1494
sg59
g913
sbag1
(g2
g3
Ntp1631
Rp1632
(dp1633
g7
I2
sg8
(lp1634
S'60352393'
p1635
aS'40343779'
p1636
aS'44901052'
p1637
aS'4709948'
p1638
aS'64246605'
p1639
aS'77392404'
p1640
aS'26207525'
p1641
aS'56121590'
p1642
aS'19058315'
p1643
aS'87830198'
p1644
aS'81022997'
p1645
aS'66120270'
p1646
aS'48678993'
p1647
aS'37744525'
p1648
aS'25330192'
p1649
aS'28618400'
p1650
aS'34243356'
p1651
aS'12170832'
p1652
aS'29640619'
p1653
aS'56191333'
p1654
asg55
g1438
sg57
g1439
sg59
g913
sbag1
(g2
g3
Ntp1655
Rp1656
(dp1657
g7
I10
sg8
g1458
sg55
g1459
sg57
g1460
sg59
g60
sbag1
(g2
g3
Ntp1658
Rp1659
(dp1660
g7
I0
sg8
(lp1661
sg55
S'15'
p1662
sg57
g1334
sg59
g913
sbag1
(g2
g3
Ntp1663
Rp1664
(dp1665
g7
I1
sg8
(lp1666
g1186
ag1187
ag1188
ag1189
ag1190
ag1191
ag1192
ag1193
ag1194
ag1195
ag1196
ag1197
asg55
S'20'
p1667
sg57
g1199
sg59
g951
sbag1
(g2
g3
Ntp1668
Rp1669
(dp1670
g7
I1
sg8
(lp1671
g30
ag31
ag32
ag33
ag34
ag35
ag36
ag37
ag38
ag39
ag40
ag41
ag42
ag43
ag44
ag45
ag46
ag47
ag48
ag49
asg55
g1386
sg57
g58
sg59
g951
sbag1
(g2
g3
Ntp1672
Rp1673
(dp1674
g7
I0
sg8
g1458
sg55
g1459
sg57
g1460
sg59
g60
sbag1
(g2
g3
Ntp1675
Rp1676
(dp1677
g7
I2
sg8
(lp1678
S'47477884'
p1679
aS'77960666'
p1680
aS'63634350'
p1681
aS'44391517'
p1682
aS'86000192'
p1683
aS'56749879'
p1684
aS'53585410'
p1685
aS'26857113'
p1686
aS'44671041'
p1687
aS'63096281'
p1688
aS'88519892'
p1689
aS'85284256'
p1690
aS'2416751'
p1691
aS'36903574'
p1692
aS'64947290'
p1693
aS'85236626'
p1694
aS'20618153'
p1695
aS'23215240'
p1696
aS'37279234'
p1697
aS'62105897'
p1698
asg55
g1493
sg57
g1494
sg59
g913
sbag1
(g2
g3
Ntp1699
Rp1700
(dp1701
g7
I2
sg8
(lp1702
g50
ag51
ag52
ag53
ag54
asg55
g1386
sg57
g58
sg59
g951
sbag1
(g2
g3
Ntp1703
Rp1704
(dp1705
g7
I0
sg8
(lp1706
S'82689818'
p1707
aS'81385263'
p1708
aS'51741554'
p1709
aS'70844780'
p1710
aS'97135019'
p1711
aS'8522855'
p1712
aS'82872148'
p1713
aS'81200278'
p1714
aS'18266644'
p1715
aS'70939718'
p1716
aS'62736669'
p1717
aS'7957843'
p1718
aS'5590289'
p1719
aS'63573738'
p1720
aS'57467488'
p1721
aS'53267490'
p1722
aS'59075181'
p1723
aS'33930505'
p1724
aS'54772132'
p1725
aS'14398123'
p1726
asg55
g1438
sg57
g1439
sg59
g913
sbag1
(g2
g3
Ntp1727
Rp1728
(dp1729
g7
I2
sg8
(lp1730
g218
ag219
ag220
ag221
ag222
ag223
ag224
ag225
ag226
ag227
ag228
ag229
ag230
ag231
ag232
ag233
ag234
ag235
ag236
ag237
asg55
S'20'
p1731
sg57
g240
sg59
g951
sbag1
(g2
g3
Ntp1732
Rp1733
(dp1734
g7
I2
sg8
(lp1735
g1280
ag1281
ag1282
ag1283
ag1284
ag1285
ag1286
asg55
g1468
sg57
g1288
sg59
g951
sbag1
(g2
g3
Ntp1736
Rp1737
(dp1738
g7
I0
sg8
(lp1739
g1027
ag1028
ag1029
ag1030
ag1031
ag1032
ag1033
ag1034
ag1035
ag1036
ag1037
ag1038
ag1039
ag1040
ag1041
ag1042
ag1043
ag1044
ag1045
ag1046
asg55
g1508
sg57
g1067
sg59
g913
sbag1
(g2
g3
Ntp1740
Rp1741
(dp1742
g7
I1
sg8
(lp1743
g976
ag977
ag978
ag979
ag980
ag981
ag982
ag983
ag984
ag985
ag986
ag987
ag988
ag989
ag990
ag991
ag992
ag993
asg55
S'20'
p1744
sg57
g995
sg59
g951
sbag1
(g2
g3
Ntp1745
Rp1746
(dp1747
g7
I1
sg8
(lp1748
sg55
g1412
sg57
g1413
sg59
g913
sbag1
(g2
g3
Ntp1749
Rp1750
(dp1751
g7
I1
sg8
(lp1752
g1214
ag1215
ag1216
ag1217
ag1218
ag1219
ag1220
ag1221
ag1222
ag1223
asg55
g1513
sg57
g1227
sg59
g951
sbag1
(g2
g3
Ntp1753
Rp1754
(dp1755
g7
I0
sg8
(lp1756
g251
ag252
ag253
ag254
ag255
ag256
ag257
ag258
ag259
ag260
ag261
ag262
ag263
ag264
ag265
ag266
ag267
ag268
ag269
ag270
asg55
S'20'
p1757
sg57
g303
sg59
g951
sbag1
(g2
g3
Ntp1758
Rp1759
(dp1760
g7
I3
sg8
g1458
sg55
g1459
sg57
g1460
sg59
g60
sbag1
(g2
g3
Ntp1761
Rp1762
(dp1763
g7
I2
sg8
g1458
sg55
g1459
sg57
g1460
sg59
g60
sbag1
(g2
g3
Ntp1764
Rp1765
(dp1766
g7
I4
sg8
g1458
sg55
g1459
sg57
g1460
sg59
g60
sbag1
(g2
g3
Ntp1767
Rp1768
(dp1769
g7
I2
sg8
(lp1770
g1224
ag1225
asg55
g1454
sg57
g1227
sg59
g913
sbag1
(g2
g3
Ntp1771
Rp1772
(dp1773
g7
I1
sg8
(lp1774
g1370
ag1371
ag1372
ag1373
ag1374
ag1375
ag1376
ag1377
ag1378
ag1379
asg55
g1623
sg57
g1381
sg59
g913
sbag1
(g2
g3
Ntp1775
Rp1776
(dp1777
g7
I1
sg8
(lp1778
g271
ag272
ag273
ag274
ag275
ag276
ag277
ag278
ag279
ag280
ag281
ag282
ag283
ag284
ag285
ag286
ag287
ag288
ag289
ag290
asg55
g1757
sg57
g303
sg59
g951
sbag1
(g2
g3
Ntp1779
Rp1780
(dp1781
g7
I1
sg8
g1458
sg55
g1459
sg57
g1460
sg59
g60
sbag1
(g2
g3
Ntp1782
Rp1783
(dp1784
g7
I0
sg8
(lp1785
g178
ag179
ag180
ag181
ag182
ag183
ag184
ag185
ag186
ag187
ag188
ag189
ag190
ag191
ag192
ag193
ag194
ag195
ag196
ag197
asg55
g1499
sg57
g240
sg59
g913
sbag1
(g2
g3
Ntp1786
Rp1787
(dp1788
g7
I1
sg8
(lp1789
g443
ag444
ag445
ag446
ag447
ag448
ag449
ag450
ag451
ag452
ag453
ag454
ag455
ag456
ag457
ag458
ag459
ag460
ag461
ag462
asg55
g1444
sg57
g478
sg59
g951
sbag1
(g2
g3
Ntp1790
Rp1791
(dp1792
g7
I1
sg8
(lp1793
S'55480737'
p1794
aS'24613625'
p1795
aS'68409833'
p1796
aS'99283252'
p1797
aS'27925117'
p1798
aS'86180471'
p1799
aS'75680261'
p1800
aS'58253841'
p1801
aS'27950803'
p1802
aS'25077484'
p1803
aS'14179347'
p1804
aS'40633534'
p1805
aS'76924297'
p1806
aS'87830198'
p1807
aS'41578612'
p1808
asg55
g1406
sg57
g1407
sg59
g913
sbag1
(g2
g3
Ntp1809
Rp1810
(dp1811
g7
I2
sg8
(lp1812
S'48678993'
p1813
aS'76661016'
p1814
aS'78821918'
p1815
aS'37770881'
p1816
aS'25106480'
p1817
aS'84449005'
p1818
asg55
g1406
sg57
g1407
sg59
g913
sbag1
(g2
g3
Ntp1819
Rp1820
(dp1821
g7
I1
sg8
(lp1822
g1270
ag1271
ag1272
ag1273
ag1274
ag1275
ag1276
ag1277
ag1278
ag1279
asg55
g1468
sg57
g1288
sg59
g951
sbag1
(g2
g3
Ntp1823
Rp1824
(dp1825
g7
I0
sg8
(lp1826
g956
ag957
ag958
ag959
ag960
ag961
ag962
ag963
ag964
ag965
ag966
ag967
ag968
ag969
ag970
ag971
ag972
ag973
ag974
ag975
asg55
g1744
sg57
g995
sg59
g951
sbag1
(g2
g3
Ntp1827
Rp1828
(dp1829
g7
I1
sg8
(lp1830
g30
ag31
ag32
ag33
ag34
ag35
ag36
ag37
ag38
ag39
ag40
ag41
ag42
ag43
ag44
ag45
ag46
ag47
ag48
ag49
asg55
g1449
sg57
g58
sg59
g913
sbag1
(g2
g3
Ntp1831
Rp1832
(dp1833
g7
I0
sg8
(lp1834
g178
ag179
ag180
ag181
ag182
ag183
ag184
ag185
ag186
ag187
ag188
ag189
ag190
ag191
ag192
ag193
ag194
ag195
ag196
ag197
asg55
g1731
sg57
g240
sg59
g951
sbag1
(g2
g3
Ntp1835
Rp1836
(dp1837
g7
I6
sg8
g1458
sg55
g1459
sg57
g1460
sg59
g60
sbag1
(g2
g3
Ntp1838
Rp1839
(dp1840
g7
I0
sg8
(lp1841
g423
ag424
ag425
ag426
ag427
ag428
ag429
ag430
ag431
ag432
ag433
ag434
ag435
ag436
ag437
ag438
ag439
ag440
ag441
ag442
asg55
g1614
sg57
g478
sg59
g913
sbag1
(g2
g3
Ntp1842
Rp1843
(dp1844
g7
I1
sg8
(lp1845
sg55
S'15'
p1846
sg57
g1334
sg59
g951
sbag1
(g2
g3
Ntp1847
Rp1848
(dp1849
g7
I1
sg8
(lp1850
S'62356458'
p1851
aS'73823548'
p1852
aS'75005528'
p1853
aS'3685034'
p1854
aS'1766560'
p1855
aS'86291592'
p1856
aS'11068043'
p1857
aS'84110134'
p1858
aS'13092455'
p1859
aS'22731474'
p1860
aS'32044893'
p1861
aS'7308727'
p1862
aS'19662602'
p1863
aS'73236988'
p1864
aS'74182182'
p1865
asg55
g1537
sg57
g1538
sg59
g913
sbag1
(g2
g3
Ntp1866
Rp1867
(dp1868
g7
I2
sg8
(lp1869
g291
ag292
ag293
ag294
ag295
ag296
ag297
ag298
ag299
ag300
ag301
asg55
g1757
sg57
g303
sg59
g951
sbag1
(g2
g3
Ntp1870
Rp1871
(dp1872
g7
I1
sg8
(lp1873
g198
ag199
ag200
ag201
ag202
ag203
ag204
ag205
ag206
ag207
ag208
ag209
ag210
ag211
ag212
ag213
ag214
ag215
ag216
ag217
asg55
g1499
sg57
g240
sg59
g913
sbag1
(g2
g3
Ntp1874
Rp1875
(dp1876
g7
I1
sg8
(lp1877
sg55
g1662
sg57
g1334
sg59
g913
sbag1
(g2
g3
Ntp1878
Rp1879
(dp1880
g7
I5
sg8
g1542
sg55
g1493
sg57
g1494
sg59
g913
sbag1
(g2
g3
Ntp1881
Rp1882
(dp1883
g7
I0
sg8
(lp1884
g1166
ag1167
ag1168
ag1169
ag1170
ag1171
ag1172
ag1173
ag1174
ag1175
ag1176
ag1177
ag1178
ag1179
ag1180
ag1181
ag1182
ag1183
ag1184
ag1185
asg55
g1667
sg57
g1199
sg59
g951
sbag1
(g2
g3
Ntp1885
Rp1886
(dp1887
g7
I3
sg8
(lp1888
g238
asg55
g1731
sg57
g240
sg59
g951
sbag1
(g2
g3
Ntp1889
Rp1890
(dp1891
g7
I8
sg8
g1458
sg55
g1459
sg57
g1460
sg59
g60
sbag1
(g2
g3
Ntp1892
Rp1893
(dp1894
g7
I1
sg8
(lp1895
g1047
ag1048
ag1049
ag1050
ag1051
ag1052
ag1053
ag1054
ag1055
ag1056
ag1057
ag1058
ag1059
ag1060
ag1061
ag1062
ag1063
ag1064
ag1065
asg55
S'20'
p1896
sg57
g1067
sg59
g951
sbag1
(g2
g3
Ntp1897
Rp1898
(dp1899
g7
I7
sg8
g1458
sg55
g1459
sg57
g1460
sg59
g60
sbag1
(g2
g3
Ntp1900
Rp1901
(dp1902
g7
I2
sg8
(lp1903
g1280
ag1281
ag1282
ag1283
ag1284
ag1285
ag1286
asg55
g1609
sg57
g1288
sg59
g913
sbag1
(g2
g3
Ntp1904
Rp1905
(dp1906
g7
I1
sg8
(lp1907
g443
ag444
ag445
ag446
ag447
ag448
ag449
ag450
ag451
ag452
ag453
ag454
ag455
ag456
ag457
ag458
ag459
ag460
ag461
ag462
asg55
g1614
sg57
g478
sg59
g913
sbag1
(g2
g3
Ntp1908
Rp1909
(dp1910
g7
I2
sg8
(lp1911
S'81022997'
p1912
aS'21070547'
p1913
aS'81116418'
p1914
aS'32183908'
p1915
aS'60312776'
p1916
aS'13996448'
p1917
aS'42406214'
p1918
aS'28618400'
p1919
aS'88752563'
p1920
aS'90103047'
p1921
aS'2550487'
p1922
aS'89338938'
p1923
aS'12430748'
p1924
aS'48503689'
p1925
asg55
g1537
sg57
g1538
sg59
g913
sbag1
(g2
g3
Ntp1926
Rp1927
(dp1928
g7
I2
sg8
(lp1929
g218
ag219
ag220
ag221
ag222
ag223
ag224
ag225
ag226
ag227
ag228
ag229
ag230
ag231
ag232
ag233
ag234
ag235
ag236
ag237
asg55
g1499
sg57
g240
sg59
g913
sbag1
(g2
g3
Ntp1930
Rp1931
(dp1932
g7
I0
sg8
(lp1933
g1027
ag1028
ag1029
ag1030
ag1031
ag1032
ag1033
ag1034
ag1035
ag1036
ag1037
ag1038
ag1039
ag1040
ag1041
ag1042
ag1043
ag1044
ag1045
ag1046
asg55
g1896
sg57
g1067
sg59
g951
sbag1
(g2
g3
Ntp1934
Rp1935
(dp1936
g7
I1
sg8
(lp1937
g198
ag199
ag200
ag201
ag202
ag203
ag204
ag205
ag206
ag207
ag208
ag209
ag210
ag211
ag212
ag213
ag214
ag215
ag216
ag217
asg55
g1731
sg57
g240
sg59
g951
sbag1
(g2
g3
Ntp1938
Rp1939
(dp1940
g7
I0
sg8
(lp1941
sg55
g1846
sg57
g1334
sg59
g951
sbag1
(g2
g3
Ntp1942
Rp1943
(dp1944
g7
I1
sg8
(lp1945
S'54772132'
p1946
aS'45414528'
p1947
aS'70113753'
p1948
aS'58332004'
p1949
aS'51593625'
p1950
aS'1048485'
p1951
aS'34900967'
p1952
aS'2317551'
p1953
aS'31416266'
p1954
aS'88597745'
p1955
aS'94467156'
p1956
aS'15902055'
p1957
aS'10702778'
p1958
aS'38499176'
p1959
aS'92778619'
p1960
aS'33776961'
p1961
aS'99272880'
p1962
aS'62701040'
p1963
aS'58040377'
p1964
aS'86291592'
p1965
asg55
g1493
sg57
g1494
sg59
g913
sbag1
(g2
g3
Ntp1966
Rp1967
(dp1968
g7
I1
sg8
(lp1969
g1270
ag1271
ag1272
ag1273
ag1274
ag1275
ag1276
ag1277
ag1278
ag1279
asg55
g1609
sg57
g1288
sg59
g913
sbag1
(g2
g3
Ntp1970
Rp1971
(dp1972
g7
I11
sg8
g1458
sg55
g1459
sg57
g1460
sg59
g60
sba.