(lp0
ccopy_reg
_reconstructor
p1
(cbase
Lessons
p2
c__builtin__
object
p3
Ntp4
Rp5
(dp6
S'sort'
p7
I1
sS'students'
p8
(lp9
S'52311353'
p10
aS'42778953'
p11
aS'81385263'
p12
aS'54074680'
p13
aS'62872965'
p14
aS'91196968'
p15
aS'5517869'
p16
aS'90743504'
p17
aS'16011419'
p18
aS'93566383'
p19
aS'670011'
p20
aS'87758823'
p21
aS'48308205'
p22
aS'71839156'
p23
aS'36508571'
p24
aS'10149535'
p25
aS'31416266'
p26
aS'80709893'
p27
aS'38499176'
p28
aS'75005528'
p29
aS'16097870'
p30
aS'96118484'
p31
aS'34588570'
p32
aS'79937969'
p33
aS'36527838'
p34
aS'56872729'
p35
aS'42115591'
p36
aS'68409833'
p37
aS'61060652'
p38
aS'58866007'
p39
aS'3474870'
p40
aS'94955328'
p41
aS'35330349'
p42
aS'80998260'
p43
aS'55412918'
p44
aS'74182182'
p45
aS'4921119'
p46
aS'37399898'
p47
aS'94686490'
p48
aS'14591033'
p49
aS'42196732'
p50
aS'81218347'
p51
aS'77896638'
p52
aS'41578612'
p53
aS'55474917'
p54
aS'79617364'
p55
aS'34243356'
p56
aS'26172512'
p57
aS'16333449'
p58
aS'83210352'
p59
aS'32595335'
p60
aS'66570705'
p61
aS'23565001'
p62
aS'21311067'
p63
asS'amount'
p64
S'54'
p65
sS'name'
p66
S'Lineaire Algebra'
p67
sS'group_name'
p68
S'hc'
p69
sbag1
(g2
g3
Ntp70
Rp71
(dp72
g7
I1
sg8
(lp73
S'64296965'
p74
aS'78136904'
p75
aS'8522855'
p76
aS'41585485'
p77
aS'18266644'
p78
aS'5368702'
p79
aS'20239127'
p80
aS'5615125'
p81
aS'44940353'
p82
aS'14671406'
p83
aS'91196968'
p84
aS'77636749'
p85
aS'54569540'
p86
aS'96054456'
p87
aS'65003379'
p88
aS'39919665'
p89
aS'59075181'
p90
aS'59544049'
p91
aS'31633723'
p92
aS'7492204'
p93
aS'11915563'
p94
aS'58332004'
p95
aS'14398123'
p96
aS'91139627'
p97
aS'84524083'
p98
aS'94467156'
p99
aS'38499176'
p100
aS'3685034'
p101
aS'99272880'
p102
aS'10792879'
p103
aS'51542218'
p104
aS'38329455'
p105
aS'79366078'
p106
aS'78735049'
p107
aS'63634350'
p108
aS'51186803'
p109
aS'58522654'
p110
aS'42115591'
p111
aS'56749879'
p112
aS'84110134'
p113
aS'54310617'
p114
aS'10872825'
p115
aS'46570285'
p116
aS'22731474'
p117
aS'23798155'
p118
aS'20883994'
p119
aS'47605891'
p120
aS'77240949'
p121
aS'31247305'
p122
aS'36903574'
p123
aS'41527759'
p124
aS'72547110'
p125
aS'94955328'
p126
aS'58469172'
p127
aS'76924297'
p128
aS'74182182'
p129
aS'17823206'
p130
aS'39659121'
p131
aS'49631542'
p132
aS'20331158'
p133
aS'34262212'
p134
aS'14591033'
p135
aS'24875739'
p136
aS'63408522'
p137
aS'97019450'
p138
aS'27187154'
p139
aS'61518436'
p140
aS'97371272'
p141
aS'81218347'
p142
aS'79858178'
p143
aS'32705005'
p144
aS'23391676'
p145
aS'55474917'
p146
aS'82688900'
p147
aS'69086548'
p148
aS'63955238'
p149
aS'34243356'
p150
aS'37498675'
p151
aS'47462856'
p152
aS'89338938'
p153
aS'9731271'
p154
aS'56988998'
p155
aS'28957789'
p156
aS'39230359'
p157
asg64
S'84'
p158
sg66
S'Kansrekenen 2'
p159
sg68
g69
sbag1
(g2
g3
Ntp160
Rp161
(dp162
g7
I0
sg8
(lp163
S'52311353'
p164
aS'64296965'
p165
aS'22871048'
p166
aS'18266644'
p167
aS'88737765'
p168
aS'36785409'
p169
aS'77831658'
p170
aS'56815156'
p171
aS'60661905'
p172
aS'13718298'
p173
aS'78822885'
p174
aS'85335143'
p175
aS'18477924'
p176
aS'14637758'
p177
aS'58480929'
p178
aS'34900967'
p179
aS'16097870'
p180
aS'75997788'
p181
aS'51542218'
p182
aS'62613937'
p183
aS'97838175'
p184
aS'42115591'
p185
aS'72586808'
p186
aS'23798155'
p187
aS'48357272'
p188
aS'80188025'
p189
aS'73302736'
p190
aS'94955328'
p191
aS'83443653'
p192
aS'4921119'
p193
aS'82854435'
p194
aS'43027916'
p195
aS'97019450'
p196
aS'65318664'
p197
aS'87830198'
p198
aS'70193386'
p199
aS'57086672'
p200
aS'41578612'
p201
aS'48678993'
p202
aS'5595824'
p203
aS'56544130'
p204
aS'78821918'
p205
aS'34243356'
p206
aS'5085194'
p207
aS'23565001'
p208
aS'73350019'
p209
aS'72456780'
p210
aS'33672995'
p211
aS'23658570'
p212
asg64
S'49'
p213
sg66
S'Analysemethoden en -technieken'
p214
sg68
g69
sbag1
(g2
g3
Ntp215
Rp216
(dp217
g7
I1
sg8
(lp218
S'81200278'
p219
aS'77831658'
p220
aS'56815156'
p221
aS'22826928'
p222
aS'96054456'
p223
aS'3168419'
p224
aS'59544049'
p225
aS'33930505'
p226
aS'74131924'
p227
aS'85335143'
p228
aS'5298748'
p229
aS'28359697'
p230
aS'43680781'
p231
aS'247918'
p232
aS'54026378'
p233
aS'11068043'
p234
aS'29526540'
p235
aS'44868097'
p236
aS'58522654'
p237
aS'24613625'
p238
aS'56749879'
p239
aS'22731474'
p240
aS'30195935'
p241
aS'20883994'
p242
aS'7308727'
p243
aS'88176729'
p244
aS'73236988'
p245
aS'89985072'
p246
aS'4568018'
p247
aS'53202517'
p248
aS'21964491'
p249
aS'14591033'
p250
aS'14816774'
p251
aS'42196732'
p252
aS'6913074'
p253
aS'66120270'
p254
aS'64600457'
p255
aS'6723948'
p256
aS'79617364'
p257
aS'33877725'
p258
aS'21029457'
p259
aS'70878567'
p260
aS'96453361'
p261
aS'15051051'
p262
aS'30050930'
p263
asg64
S'45'
p264
sg66
S'Bioinformatica'
p265
sg68
g69
sbag1
(g2
g3
Ntp266
Rp267
(dp268
g7
I1
sg8
(lp269
S'13534377'
p270
aS'50184318'
p271
aS'64296965'
p272
aS'42778953'
p273
aS'82689818'
p274
aS'51741554'
p275
aS'97135019'
p276
aS'46052388'
p277
aS'1075391'
p278
aS'45556081'
p279
aS'5517869'
p280
aS'33760909'
p281
aS'64393888'
p282
aS'50143947'
p283
aS'87758823'
p284
aS'31416266'
p285
aS'15902055'
p286
aS'34773179'
p287
aS'62701040'
p288
aS'48601268'
p289
aS'86291592'
p290
aS'22699561'
p291
aS'23547619'
p292
aS'3233378'
p293
aS'1696500'
p294
aS'58522654'
p295
aS'86000192'
p296
aS'4783858'
p297
aS'72577292'
p298
aS'54310617'
p299
aS'13092455'
p300
aS'17575088'
p301
aS'1665980'
p302
aS'96104167'
p303
aS'77240949'
p304
aS'29474737'
p305
aS'7308727'
p306
aS'76123484'
p307
aS'17222374'
p308
aS'35330349'
p309
aS'68601184'
p310
aS'64228258'
p311
aS'57595888'
p312
aS'21964491'
p313
aS'42171678'
p314
aS'43027916'
p315
aS'28357474'
p316
aS'42196732'
p317
aS'77896638'
p318
aS'60312776'
p319
aS'26406342'
p320
aS'9332762'
p321
aS'29640619'
p322
aS'61443567'
p323
aS'73980360'
p324
aS'65960683'
p325
aS'37770881'
p326
aS'25106480'
p327
aS'53107172'
p328
aS'24277163'
p329
aS'75521763'
p330
asg64
S'61'
p331
sg66
S'Collectieve Intelligentie'
p332
sg68
g69
sbag1
(g2
g3
Ntp333
Rp334
(dp335
g7
I1
sg8
(lp336
S'70844780'
p337
aS'78136904'
p338
aS'22871048'
p339
aS'96554914'
p340
aS'20239127'
p341
aS'51415617'
p342
aS'36785409'
p343
aS'49922855'
p344
aS'86988337'
p345
aS'54569540'
p346
aS'22826928'
p347
aS'60661905'
p348
aS'13718298'
p349
aS'27370083'
p350
aS'20095994'
p351
aS'99453514'
p352
aS'5298748'
p353
aS'84524083'
p354
aS'92778619'
p355
aS'3685034'
p356
aS'33776961'
p357
aS'43680781'
p358
aS'77960666'
p359
aS'13092455'
p360
aS'27950803'
p361
aS'27805666'
p362
aS'37110913'
p363
aS'32044893'
p364
aS'38296757'
p365
aS'60352393'
p366
aS'4709948'
p367
aS'77392404'
p368
aS'37399898'
p369
aS'36213792'
p370
aS'82390428'
p371
aS'87830198'
p372
aS'90474003'
p373
aS'99975346'
p374
aS'70193386'
p375
aS'6913074'
p376
aS'61518436'
p377
aS'57086672'
p378
aS'41578612'
p379
aS'42406214'
p380
aS'68286356'
p381
aS'59753700'
p382
aS'13658563'
p383
aS'84449005'
p384
aS'24277163'
p385
aS'51052738'
p386
aS'52715680'
p387
asg64
S'51'
p388
sg66
S'Reflectie op de digitale cultuur'
p389
sg68
g69
sbag1
(g2
g3
Ntp390
Rp391
(dp392
g7
I0
sg8
(lp393
S'64296965'
p394
aS'82689818'
p395
aS'23257088'
p396
aS'5517869'
p397
aS'62736669'
p398
aS'86988337'
p399
aS'96054456'
p400
aS'670011'
p401
aS'57467488'
p402
aS'47932106'
p403
aS'3168419'
p404
aS'4529208'
p405
aS'59397895'
p406
aS'13132925'
p407
aS'58332004'
p408
aS'5526560'
p409
aS'73823548'
p410
aS'54540997'
p411
aS'75005528'
p412
aS'58083680'
p413
aS'51542218'
p414
aS'247918'
p415
aS'29526540'
p416
aS'47477884'
p417
aS'77960666'
p418
aS'40434933'
p419
aS'56872729'
p420
aS'56749879'
p421
aS'13092455'
p422
aS'40141996'
p423
aS'86180471'
p424
aS'34872117'
p425
aS'64947290'
p426
aS'25077484'
p427
aS'27123462'
p428
aS'60352393'
p429
aS'76123484'
p430
aS'43902015'
p431
aS'17222374'
p432
aS'52552718'
p433
aS'12091019'
p434
aS'91527663'
p435
aS'26207525'
p436
aS'56121590'
p437
aS'4921119'
p438
aS'49631542'
p439
aS'94686490'
p440
aS'83869542'
p441
aS'43027916'
p442
aS'14816774'
p443
aS'90474003'
p444
aS'42196732'
p445
aS'15187217'
p446
aS'51566595'
p447
aS'77896638'
p448
aS'26406342'
p449
aS'39459642'
p450
aS'78821918'
p451
aS'88752563'
p452
aS'58592894'
p453
aS'11996292'
p454
aS'46989508'
p455
aS'29640619'
p456
aS'56191333'
p457
aS'37701751'
p458
aS'17092717'
p459
aS'5085194'
p460
aS'70072978'
p461
aS'72796858'
p462
aS'24277163'
p463
aS'72456780'
p464
aS'23658570'
p465
asg64
S'72'
p466
sg66
S'Databases 2'
p467
sg68
g69
sbag1
(g2
g3
Ntp468
Rp469
(dp470
g7
I0
sg8
(lp471
S'13218321'
p472
aS'36748818'
p473
aS'50184318'
p474
aS'27916487'
p475
aS'5517869'
p476
aS'96082155'
p477
aS'68315599'
p478
aS'1181560'
p479
aS'66621166'
p480
aS'85335143'
p481
aS'49219163'
p482
aS'78243495'
p483
aS'58332004'
p484
aS'77376714'
p485
aS'33776961'
p486
aS'1766560'
p487
aS'43680781'
p488
aS'75997788'
p489
aS'27241113'
p490
aS'29526540'
p491
aS'36527838'
p492
aS'13911001'
p493
aS'99283252'
p494
aS'51650744'
p495
aS'46570285'
p496
aS'30658799'
p497
aS'3883025'
p498
aS'58699305'
p499
aS'18144425'
p500
aS'17222374'
p501
aS'4709948'
p502
aS'83415514'
p503
aS'49631542'
p504
aS'83266686'
p505
aS'78544592'
p506
aS'42171678'
p507
aS'14309255'
p508
aS'63111000'
p509
aS'41489515'
p510
aS'59111489'
p511
aS'64600457'
p512
aS'78821918'
p513
aS'89180944'
p514
aS'11741347'
p515
aS'58592894'
p516
aS'11996292'
p517
aS'47462856'
p518
aS'48198668'
p519
aS'70072978'
p520
aS'78443067'
p521
aS'15051051'
p522
aS'84449005'
p523
aS'24277163'
p524
aS'75521763'
p525
asg64
S'54'
p526
sg66
S'Moderne Databases'
p527
sg68
g69
sbag1
(g2
g3
Ntp528
Rp529
(dp530
g7
I0
sg8
g73
sg64
g158
sg66
g159
sg68
g69
sbag1
(g2
g3
Ntp531
Rp532
(dp533
g7
I2
sg8
g218
sg64
g264
sg66
g265
sg68
g69
sbag1
(g2
g3
Ntp534
Rp535
(dp536
g7
I0
sg8
(lp537
S'22871048'
p538
aS'86807027'
p539
aS'57467488'
p540
aS'59075181'
p541
aS'14941752'
p542
aS'71839156'
p543
aS'87210640'
p544
aS'45660925'
p545
aS'66122625'
p546
aS'75997788'
p547
aS'97417002'
p548
aS'31897288'
p549
aS'1696500'
p550
aS'4783858'
p551
aS'56749879'
p552
aS'61060652'
p553
aS'36903574'
p554
aS'37110913'
p555
aS'4353500'
p556
aS'76393508'
p557
aS'48357272'
p558
aS'44901052'
p559
aS'83443653'
p560
aS'92977271'
p561
aS'19858730'
p562
aS'20331158'
p563
aS'4568018'
p564
aS'14591033'
p565
aS'42171678'
p566
aS'14816774'
p567
aS'20830477'
p568
aS'97019450'
p569
aS'81218347'
p570
aS'79879876'
p571
aS'58736785'
p572
aS'11996292'
p573
aS'14138904'
p574
aS'22323043'
p575
aS'98105190'
p576
aS'13658563'
p577
aS'53775014'
p578
aS'53107172'
p579
aS'75521763'
p580
aS'94930277'
p581
asg64
S'44'
p582
sg66
S'Heuristieken 1'
p583
sg68
g69
sbag1
(g2
g3
Ntp584
Rp585
(dp586
g7
I0
sg8
g218
sg64
g264
sg66
g265
sg68
g69
sbag1
(g2
g3
Ntp587
Rp588
(dp589
g7
I2
sg8
g269
sg64
g331
sg66
g332
sg68
g69
sbag1
(g2
g3
Ntp590
Rp591
(dp592
g7
I0
sg8
g336
sg64
g388
sg66
g389
sg68
g69
sbag1
(g2
g3
Ntp593
Rp594
(dp595
g7
I0
sg8
(lp596
S'6709529'
p597
aS'56348773'
p598
aS'51741554'
p599
aS'97135019'
p600
aS'27064249'
p601
aS'70939718'
p602
aS'93361408'
p603
aS'59220392'
p604
aS'5615125'
p605
aS'87602030'
p606
aS'86807027'
p607
aS'96054456'
p608
aS'33760909'
p609
aS'46701583'
p610
aS'3678531'
p611
aS'65978354'
p612
aS'47932106'
p613
aS'26260141'
p614
aS'27298319'
p615
aS'85335143'
p616
aS'4546613'
p617
aS'53139134'
p618
aS'6939933'
p619
aS'38179241'
p620
aS'10149535'
p621
aS'73823548'
p622
aS'15902055'
p623
aS'75585647'
p624
aS'58040377'
p625
aS'16097870'
p626
aS'10792879'
p627
aS'75997788'
p628
aS'88855695'
p629
aS'81155296'
p630
aS'87900893'
p631
aS'78735049'
p632
aS'14303208'
p633
aS'47477884'
p634
aS'44868097'
p635
aS'56872729'
p636
aS'77306636'
p637
aS'63634350'
p638
aS'86000192'
p639
aS'4783858'
p640
aS'75623387'
p641
aS'27925117'
p642
aS'53585410'
p643
aS'46570285'
p644
aS'40141996'
p645
aS'86180471'
p646
aS'79888156'
p647
aS'58253841'
p648
aS'72665524'
p649
aS'82412626'
p650
aS'38296757'
p651
aS'58699305'
p652
aS'37279234'
p653
aS'62105897'
p654
aS'22168693'
p655
aS'65408517'
p656
aS'72526473'
p657
aS'48357272'
p658
aS'80188025'
p659
aS'73302736'
p660
aS'12091019'
p661
aS'14179347'
p662
aS'58469172'
p663
aS'34173695'
p664
aS'64228258'
p665
aS'79167252'
p666
aS'55412918'
p667
aS'74182182'
p668
aS'83415514'
p669
aS'83266686'
p670
aS'94686490'
p671
aS'14591033'
p672
aS'24875739'
p673
aS'78544592'
p674
aS'14816774'
p675
aS'27187154'
p676
aS'31306819'
p677
aS'6913074'
p678
aS'55530367'
p679
aS'64600457'
p680
aS'32705005'
p681
aS'23628642'
p682
aS'6723948'
p683
aS'11593163'
p684
aS'76661016'
p685
aS'45915482'
p686
aS'75446434'
p687
aS'79617364'
p688
aS'56544130'
p689
aS'88752563'
p690
aS'21029457'
p691
aS'58592894'
p692
aS'23565001'
p693
aS'62363761'
p694
aS'78443067'
p695
aS'9731271'
p696
aS'28957789'
p697
aS'61520025'
p698
aS'19717077'
p699
aS'33672995'
p700
aS'10609762'
p701
aS'23658570'
p702
asg64
S'106'
p703
sg66
S'Calculus 2'
p704
sg68
g69
sbag1
(g2
g3
Ntp705
Rp706
(dp707
g7
I0
sg8
g9
sg64
g65
sg66
g67
sg68
g69
sbag1
(g2
g3
Ntp708
Rp709
(dp710
g7
I0
sg8
g269
sg64
g331
sg66
g332
sg68
g69
sbag1
(g2
g3
Ntp711
Rp712
(dp713
g7
I1
sg8
(lp714
S'82066165'
p715
aS'13284244'
p716
aS'42778953'
p717
aS'81385263'
p718
aS'44151631'
p719
aS'40791377'
p720
aS'5368702'
p721
aS'86988337'
p722
aS'12077419'
p723
aS'7957843'
p724
aS'15911353'
p725
aS'66701209'
p726
aS'41644639'
p727
aS'51673172'
p728
aS'50143947'
p729
aS'68315599'
p730
aS'75599734'
p731
aS'79033175'
p732
aS'54772132'
p733
aS'65852230'
p734
aS'11915563'
p735
aS'48308205'
p736
aS'72895450'
p737
aS'14383795'
p738
aS'51472074'
p739
aS'71839156'
p740
aS'49683101'
p741
aS'535689'
p742
aS'2317551'
p743
aS'84524083'
p744
aS'38499176'
p745
aS'11459236'
p746
aS'1766560'
p747
aS'99272880'
p748
aS'43689934'
p749
aS'10792879'
p750
aS'88855695'
p751
aS'47260040'
p752
aS'86291592'
p753
aS'1695839'
p754
aS'14303208'
p755
aS'11068043'
p756
aS'25994016'
p757
aS'13911001'
p758
ag758
aS'88596522'
p759
aS'74361881'
p760
aS'76802764'
p761
aS'63634350'
p762
aS'58522654'
p763
aS'44391517'
p764
aS'24613625'
p765
aS'53585410'
p766
aS'64418623'
p767
aS'30658799'
p768
aS'75664412'
p769
aS'3407554'
p770
ag770
aS'1665980'
p771
aS'72665524'
p772
aS'34872117'
p773
aS'27950803'
p774
aS'23215240'
p775
aS'92665222'
p776
aS'73236988'
p777
aS'42297781'
p778
aS'79167252'
p779
aS'89985072'
p780
aS'95631564'
p781
aS'83266686'
p782
aS'4568018'
p783
aS'53202517'
p784
aS'57595888'
p785
aS'9067939'
p786
aS'14309255'
p787
aS'75759231'
p788
aS'27187154'
p789
aS'32204977'
p790
aS'8464817'
p791
aS'55103073'
p792
aS'77896638'
p793
aS'60312776'
p794
aS'94687383'
p795
aS'6723948'
p796
aS'76661016'
p797
aS'5595824'
p798
aS'80135353'
p799
aS'26406342'
p800
aS'39459642'
p801
aS'34243356'
p802
aS'88752563'
p803
aS'11741347'
p804
aS'34110913'
p805
aS'46989508'
p806
aS'65675896'
p807
aS'14138904'
p808
aS'91250534'
p809
aS'88636924'
p810
aS'5085194'
p811
aS'98105190'
p812
aS'95007221'
p813
aS'31194811'
p814
aS'5892092'
p815
aS'65960683'
p816
aS'37770881'
p817
aS'2079771'
p818
aS'72796858'
p819
aS'48503689'
p820
aS'52715680'
p821
asg64
S'109'
p822
sg66
S'Compilerbouw'
p823
sg68
g69
sbag1
(g2
g3
Ntp824
Rp825
(dp826
g7
I0
sg8
g714
sg64
g822
sg66
g823
sg68
g69
sbag1
(g2
g3
Ntp827
Rp828
(dp829
g7
I0
sg8
(lp830
S'52311353'
p831
aS'70015932'
p832
aS'82872148'
p833
aS'22871048'
p834
aS'96554914'
p835
aS'14671406'
p836
aS'13718298'
p837
aS'27582862'
p838
aS'58565406'
p839
aS'3727435'
p840
aS'50143947'
p841
aS'26260141'
p842
aS'75599734'
p843
aS'31103066'
p844
aS'59544049'
p845
aS'31633723'
p846
aS'37830626'
p847
aS'11915563'
p848
aS'78243495'
p849
aS'4546613'
p850
aS'51593625'
p851
aS'1048485'
p852
aS'43460038'
p853
aS'62356458'
p854
aS'77376714'
p855
aS'94467156'
p856
aS'80709893'
p857
aS'48601268'
p858
aS'54026378'
p859
aS'11068043'
p860
aS'3233378'
p861
aS'44868097'
p862
aS'21095566'
p863
aS'42115591'
p864
aS'68409833'
p865
aS'99283252'
p866
aS'4783858'
p867
aS'84110134'
p868
aS'44671041'
p869
aS'61060652'
p870
aS'5976174'
p871
aS'31247305'
p872
aS'27950803'
p873
aS'62105897'
p874
aS'41527759'
p875
aS'65408517'
p876
aS'88176729'
p877
aS'40343779'
p878
aS'52552718'
p879
aS'48357272'
p880
aS'73302736'
p881
aS'73236988'
p882
aS'14072826'
p883
aS'9287708'
p884
aS'89985072'
p885
aS'95631564'
p886
aS'4568018'
p887
aS'14309255'
p888
aS'65318664'
p889
aS'28357474'
p890
aS'60312776'
p891
aS'55474917'
p892
aS'37744525'
p893
aS'45915482'
p894
aS'89180944'
p895
aS'33877725'
p896
aS'83210352'
p897
aS'29640619'
p898
aS'89338938'
p899
aS'41153310'
p900
aS'22323043'
p901
aS'78443067'
p902
aS'25106480'
p903
aS'58074656'
p904
aS'52715680'
p905
asg64
S'75'
p906
sg66
S'Software engineering'
p907
sg68
g69
sbag1
(g2
g3
Ntp908
Rp909
(dp910
g7
I0
sg8
(lp911
S'76903244'
p912
aS'53512831'
p913
aS'27064249'
p914
aS'69459473'
p915
aS'5615125'
p916
aS'24891081'
p917
aS'67073567'
p918
aS'78243495'
p919
aS'72895450'
p920
aS'49908313'
p921
aS'43460038'
p922
aS'41790793'
p923
aS'6249823'
p924
aS'14303208'
p925
aS'40434933'
p926
aS'72577292'
p927
aS'1137946'
p928
aS'2416751'
p929
aS'20618153'
p930
aS'3474870'
p931
aS'76123484'
p932
aS'43902015'
p933
aS'64228258'
p934
aS'77392404'
p935
aS'53202517'
p936
aS'66034145'
p937
aS'57086672'
p938
aS'22288615'
p939
aS'76648468'
p940
aS'89180944'
p941
aS'33877725'
p942
aS'16333449'
p943
aS'10698627'
p944
aS'61443567'
p945
aS'17092717'
p946
aS'28358060'
p947
aS'94930277'
p948
aS'39230359'
p949
aS'14847953'
p950
asg64
S'39'
p951
sg66
S'Webprogrammeren en databases'
p952
sg68
g69
sbag1
(g2
g3
Ntp953
Rp954
(dp955
g7
I0
sg8
(lp956
g715
ag716
ag717
ag718
ag719
ag720
ag721
ag722
ag723
ag724
ag725
ag726
ag727
ag728
ag729
ag730
ag731
ag732
ag733
ag734
ag735
ag736
ag737
ag738
ag739
ag740
ag741
ag742
ag743
ag744
ag745
ag746
ag747
ag748
ag749
ag750
ag751
ag752
ag753
ag754
asg64
S'40'
p957
sg66
g823
sg68
S'wc'
p958
sbag1
(g2
g3
Ntp959
Rp960
(dp961
g7
I0
sg8
(lp962
g831
ag832
ag833
ag834
ag835
ag836
ag837
ag838
ag839
ag840
ag841
ag842
ag843
ag844
ag845
ag846
ag847
ag848
ag849
ag850
ag851
ag852
ag853
ag854
ag855
ag856
ag857
ag858
ag859
ag860
ag861
ag862
ag863
ag864
ag865
ag866
ag867
ag868
ag869
ag870
asg64
S'40'
p963
sg66
g907
sg68
S'pr'
p964
sbag1
(g2
g3
Ntp965
Rp966
(dp967
g7
I1
sg8
(lp968
S'70015932'
p969
aS'82689818'
p970
aS'45556081'
p971
aS'29718115'
p972
aS'49683101'
p973
aS'43460038'
p974
aS'10149535'
p975
aS'13798030'
p976
aS'40434933'
p977
aS'72683344'
p978
aS'27925117'
p979
aS'72577292'
p980
aS'23798155'
p981
aS'58866007'
p982
aS'34872117'
p983
aS'83266686'
p984
aS'20331158'
p985
aS'28618400'
p986
aS'89180944'
p987
aS'14138904'
p988
aS'59289233'
p989
asg64
S'21'
p990
sg66
S'Architectuur en computerorganisatie'
p991
sg68
g69
sbag1
(g2
g3
Ntp992
Rp993
(dp994
g7
I0
sg8
(lp995
g597
ag598
ag599
ag600
ag601
ag602
ag603
ag604
ag605
ag606
ag607
ag608
ag609
ag610
ag611
ag612
ag613
ag614
ag615
ag616
ag617
ag618
ag619
ag620
ag621
ag622
ag623
ag624
ag625
ag626
ag627
ag628
ag629
ag630
ag631
ag632
ag633
ag634
ag635
ag636
asg64
S'40'
p996
sg66
g704
sg68
g958
sbag1
(g2
g3
Ntp997
Rp998
(dp999
g7
I1
sg8
(lp1000
g755
ag756
ag757
ag758
ag758
ag759
ag760
ag761
ag762
ag763
ag764
ag765
ag766
ag767
ag768
ag769
ag770
ag770
ag771
ag772
ag773
ag774
ag775
ag776
ag777
ag778
ag779
ag780
ag781
ag782
ag783
ag784
ag785
ag786
ag787
ag788
ag789
ag790
ag791
ag792
asg64
g957
sg66
g823
sg68
g958
sbag1
(g2
g3
Ntp1001
Rp1002
(dp1003
g7
I0
sg8
(lp1004
S'36785409'
p1005
aS'77636749'
p1006
aS'12077419'
p1007
aS'58565406'
p1008
aS'76487754'
p1009
aS'68315599'
p1010
aS'85335143'
p1011
aS'93041523'
p1012
aS'48308205'
p1013
aS'7106649'
p1014
aS'77264363'
p1015
aS'14383795'
p1016
aS'10149535'
p1017
aS'21192048'
p1018
aS'92496780'
p1019
aS'6249823'
p1020
aS'43680781'
p1021
aS'23547619'
p1022
aS'40434933'
p1023
aS'70336464'
p1024
aS'4697362'
p1025
aS'75664412'
p1026
aS'37110913'
p1027
aS'44901052'
p1028
aS'47982619'
p1029
aS'14309255'
p1030
aS'97371272'
p1031
aS'32204977'
p1032
aS'41578612'
p1033
aS'69086548'
p1034
aS'26406342'
p1035
aS'9332762'
p1036
aS'11996292'
p1037
aS'89338938'
p1038
aS'22323043'
p1039
aS'12430748'
p1040
aS'31194811'
p1041
aS'75521763'
p1042
asg64
S'38'
p1043
sg66
S'Technology for games'
p1044
sg68
g69
sbag1
(g2
g3
Ntp1045
Rp1046
(dp1047
g7
I0
sg8
(lp1048
g715
ag716
ag717
ag718
ag719
ag720
ag721
ag722
ag723
ag724
ag725
ag726
ag727
ag728
ag729
ag730
ag731
ag732
ag733
ag734
ag735
ag736
ag737
ag738
ag739
ag740
ag741
ag742
ag743
ag744
ag745
ag746
ag747
ag748
ag749
ag750
ag751
ag752
ag753
ag754
asg64
S'40'
p1049
sg66
g823
sg68
g964
sbag1
(g2
g3
Ntp1050
Rp1051
(dp1052
g7
I2
sg8
(lp1053
g793
ag794
ag795
ag796
ag797
ag798
ag799
ag800
ag801
ag802
ag803
ag804
ag805
ag806
ag807
ag808
ag809
ag810
ag811
ag812
ag813
ag814
ag815
ag816
ag817
ag818
ag819
ag820
ag821
asg64
g1049
sg66
g823
sg68
g964
sbag1
(g2
g3
Ntp1054
Rp1055
(dp1056
g7
I0
sg8
(lp1057
S'22871048'
p1058
aS'62872965'
p1059
aS'5517869'
p1060
aS'74131924'
p1061
aS'27298319'
p1062
aS'11915563'
p1063
aS'70113753'
p1064
aS'36508571'
p1065
aS'62356458'
p1066
aS'16097870'
p1067
aS'54026378'
p1068
aS'68409833'
p1069
aS'37110913'
p1070
aS'61611295'
p1071
aS'52552718'
p1072
aS'44901052'
p1073
aS'19858730'
p1074
aS'51566595'
p1075
aS'88627897'
p1076
aS'39459642'
p1077
aS'34806836'
p1078
aS'72796858'
p1079
asg64
S'22'
p1080
sg66
S'Autonomous Agents 2'
p1081
sg68
g69
sbag1
(g2
g3
Ntp1082
Rp1083
(dp1084
g7
I1
sg8
(lp1085
sg64
S'21'
p1086
sg66
S'Informatie- en organisatieontwerp'
p1087
sg68
g69
sbag1
(g2
g3
Ntp1088
Rp1089
(dp1090
g7
I0
sg8
(lp1091
g831
ag832
ag833
ag834
ag835
ag836
ag837
ag838
ag839
ag840
ag841
ag842
ag843
ag844
ag845
ag846
ag847
ag848
ag849
ag850
ag851
ag852
ag853
ag854
ag855
ag856
ag857
ag858
ag859
ag860
ag861
ag862
ag863
ag864
ag865
ag866
ag867
ag868
ag869
ag870
asg64
S'40'
p1092
sg66
g907
sg68
g958
sbag1
(g2
g3
Ntp1093
Rp1094
(dp1095
g7
I0
sg8
g1085
sg64
g1086
sg66
g1087
sg68
g69
sbag1
(g2
g3
Ntp1096
Rp1097
(dp1098
g7
I0
sg8
(lp1099
g394
ag395
ag396
ag397
ag398
ag399
ag400
ag401
ag402
ag403
ag404
ag405
ag406
ag407
ag408
ag409
ag410
ag411
ag412
ag413
ag414
ag415
ag416
ag417
ag418
ag419
ag420
ag421
ag422
ag423
ag424
ag425
ag426
ag427
ag428
ag429
ag430
ag431
ag432
ag433
asg64
S'40'
p1100
sg66
g467
sg68
g958
sbag1
(g2
g3
Ntp1101
Rp1102
(dp1103
g7
I1
sg8
(lp1104
S'36903574'
p1105
aS'64947290'
p1106
aS'3474870'
p1107
aS'41527759'
p1108
aS'43902015'
p1109
aS'40343779'
p1110
aS'91527663'
p1111
aS'64554442'
p1112
aS'21964491'
p1113
aS'51566595'
p1114
aS'51509565'
p1115
aS'23983476'
p1116
aS'3707829'
p1117
aS'58592894'
p1118
aS'96453361'
p1119
aS'44828429'
p1120
aS'23652927'
p1121
aS'52715680'
p1122
asg64
S'25'
p1123
sg66
S'Algoritmen en complexiteit'
p1124
sg68
g964
sbag1
(g2
g3
Ntp1125
Rp1126
(dp1127
g7
I0
sg8
g968
sg64
g990
sg66
g991
sg68
g69
sbag1
(g2
g3
Ntp1128
Rp1129
(dp1130
g7
I1
sg8
(lp1131
g637
ag638
ag639
ag640
ag641
ag642
ag643
ag644
ag645
ag646
ag647
ag648
ag649
ag650
ag651
ag652
ag653
ag654
ag655
ag656
ag657
ag658
ag659
ag660
ag661
ag662
ag663
ag664
ag665
ag666
ag667
ag668
ag669
ag670
ag671
ag672
ag673
ag674
ag675
ag676
asg64
g996
sg66
g704
sg68
g958
sbag1
(g2
g3
Ntp1132
Rp1133
(dp1134
g7
I1
sg8
(lp1135
g434
ag435
ag436
ag437
ag438
ag439
ag440
ag441
ag442
ag443
ag444
ag445
ag446
ag447
ag448
ag449
ag450
ag451
ag452
ag453
ag454
ag455
ag456
ag457
ag458
ag459
ag460
ag461
ag462
ag463
ag464
ag465
asg64
g1100
sg66
g467
sg68
g958
sbag1
(g2
g3
Ntp1136
Rp1137
(dp1138
g7
I2
sg8
(lp1139
g793
ag794
ag795
ag796
ag797
ag798
ag799
ag800
ag801
ag802
ag803
ag804
ag805
ag806
ag807
ag808
ag809
ag810
ag811
ag812
ag813
ag814
ag815
ag816
ag817
ag818
ag819
ag820
ag821
asg64
g957
sg66
g823
sg68
g958
sbag1
(g2
g3
Ntp1140
Rp1141
(dp1142
g7
I0
sg8
(lp1143
S'82689818'
p1144
aS'81385263'
p1145
aS'78136904'
p1146
aS'8522855'
p1147
aS'41585485'
p1148
aS'19540225'
p1149
aS'14671406'
p1150
aS'86988337'
p1151
aS'12077419'
p1152
aS'46701583'
p1153
aS'66433883'
p1154
aS'50143947'
p1155
aS'57467488'
p1156
aS'26260141'
p1157
aS'27298319'
p1158
aS'72895450'
p1159
aS'77376714'
p1160
aS'15902055'
p1161
aS'88596522'
p1162
aS'21095566'
p1163
aS'53585410'
p1164
aS'67817269'
p1165
aS'34765676'
p1166
aS'1665980'
p1167
aS'5976174'
p1168
asg64
S'25'
p1169
sg66
g1124
sg68
g958
sbag1
(g2
g3
Ntp1170
Rp1171
(dp1172
g7
I1
sg8
(lp1173
g1105
ag1106
ag1107
ag1108
ag1109
ag1110
ag1111
ag1112
ag1113
ag1114
ag1115
ag1116
ag1117
ag1118
ag1119
ag1120
ag1121
ag1122
asg64
g1169
sg66
g1124
sg68
g958
sbag1
(g2
g3
Ntp1174
Rp1175
(dp1176
g7
I1
sg8
(lp1177
S'81385263'
p1178
aS'81200278'
p1179
aS'5368702'
p1180
aS'19214659'
p1181
aS'93566383'
p1182
aS'4546613'
p1183
aS'38179241'
p1184
aS'69634191'
p1185
aS'81155296'
p1186
aS'21677389'
p1187
aS'23547619'
p1188
aS'34765676'
p1189
aS'76924297'
p1190
aS'37399898'
p1191
aS'66034145'
p1192
aS'28055464'
p1193
aS'76661016'
p1194
aS'3707829'
p1195
aS'2550487'
p1196
aS'20374340'
p1197
aS'37701751'
p1198
aS'65675896'
p1199
aS'64768422'
p1200
aS'44828429'
p1201
aS'14847953'
p1202
asg64
S'25'
p1203
sg66
S'Interactie-ontwerp'
p1204
sg68
g69
sbag1
(g2
g3
Ntp1205
Rp1206
(dp1207
g7
I1
sg8
(lp1208
g871
ag872
ag873
ag874
ag875
ag876
ag877
ag878
ag879
ag880
ag881
ag882
ag883
ag884
ag885
ag886
ag887
ag888
ag889
ag890
ag891
ag892
ag893
ag894
ag895
ag896
ag897
ag898
ag899
ag900
ag901
ag902
ag903
ag904
ag905
asg64
g963
sg66
g907
sg68
g964
sbag1
(g2
g3
Ntp1209
Rp1210
(dp1211
g7
I1
sg8
(lp1212
S'40791377'
p1213
aS'46701583'
p1214
aS'49683101'
p1215
aS'94467156'
p1216
aS'3685034'
p1217
aS'26857113'
p1218
aS'90067329'
p1219
aS'23798155'
p1220
aS'5976174'
p1221
aS'77240949'
p1222
aS'85236626'
p1223
aS'38296757'
p1224
aS'33252501'
p1225
aS'63111000'
p1226
aS'27187154'
p1227
aS'61518436'
p1228
aS'67625383'
p1229
aS'37744525'
p1230
aS'39459642'
p1231
aS'15051051'
p1232
aS'56988998'
p1233
aS'2079771'
p1234
asg64
S'22'
p1235
sg66
S'Machine Learning'
p1236
sg68
g69
sbag1
(g2
g3
Ntp1237
Rp1238
(dp1239
g7
I0
sg8
g1177
sg64
g1203
sg66
g1204
sg68
g69
sbag1
(g2
g3
Ntp1240
Rp1241
(dp1242
g7
I1
sg8
g911
sg64
g951
sg66
g952
sg68
g69
sbag1
(g2
g3
Ntp1243
Rp1244
(dp1245
g7
I0
sg8
(lp1246
S'52311353'
p1247
aS'93023961'
p1248
aS'81200278'
p1249
aS'91196968'
p1250
aS'50143947'
p1251
aS'74131924'
p1252
aS'45414528'
p1253
aS'19337738'
p1254
aS'99453514'
p1255
aS'87314964'
p1256
aS'66122625'
p1257
aS'87900893'
p1258
aS'13116738'
p1259
aS'37110913'
p1260
aS'17823206'
p1261
aS'21964491'
p1262
aS'81022997'
p1263
aS'51566595'
p1264
aS'13996448'
p1265
aS'37744525'
p1266
aS'25330192'
p1267
aS'68360259'
p1268
aS'59753700'
p1269
aS'70878567'
p1270
aS'97136582'
p1271
aS'22323043'
p1272
aS'98780382'
p1273
asg64
S'27'
p1274
sg66
S'Data Mining'
p1275
sg68
g69
sbag1
(g2
g3
Ntp1276
Rp1277
(dp1278
g7
I1
sg8
(lp1279
g871
ag872
ag873
ag874
ag875
ag876
ag877
ag878
ag879
ag880
ag881
ag882
ag883
ag884
ag885
ag886
ag887
ag888
ag889
ag890
ag891
ag892
ag893
ag894
ag895
ag896
ag897
ag898
ag899
ag900
ag901
ag902
ag903
ag904
ag905
asg64
g1092
sg66
g907
sg68
g958
sbag1
(g2
g3
Ntp1280
Rp1281
(dp1282
g7
I0
sg8
(lp1283
g1144
ag1145
ag1146
ag1147
ag1148
ag1149
ag1150
ag1151
ag1152
ag1153
ag1154
ag1155
ag1156
ag1157
ag1158
ag1159
ag1160
ag1161
ag1162
ag1163
ag1164
ag1165
ag1166
ag1167
ag1168
ag1105
ag1106
ag1107
ag1108
ag1109
ag1110
ag1111
ag1112
ag1113
ag1114
ag1115
ag1116
ag1117
ag1118
ag1119
ag1120
ag1121
ag1122
asg64
S'43'
p1284
sg66
g1124
sg68
g69
sbag1
(g2
g3
Ntp1285
Rp1286
(dp1287
g7
I0
sg8
(lp1288
g1144
ag1145
ag1146
ag1147
ag1148
ag1149
ag1150
ag1151
ag1152
ag1153
ag1154
ag1155
ag1156
ag1157
ag1158
ag1159
ag1160
ag1161
ag1162
ag1163
ag1164
ag1165
ag1166
ag1167
ag1168
asg64
g1123
sg66
g1124
sg68
g964
sbag1
(g2
g3
Ntp1289
Rp1290
(dp1291
g7
I1
sg8
(lp1292
g563
ag564
ag565
ag566
ag567
ag568
ag569
ag570
ag571
ag572
ag573
ag574
ag575
ag576
ag577
ag578
ag579
ag580
ag581
asg64
S'25'
p1293
sg66
g583
sg68
g958
sbag1
(g2
g3
Ntp1294
Rp1295
(dp1296
g7
I0
sg8
g1212
sg64
g1235
sg66
g1236
sg68
g69
sbag1
(g2
g3
Ntp1297
Rp1298
(dp1299
g7
I1
sg8
g1246
sg64
g1274
sg66
g1275
sg68
g69
sbag1
(g2
g3
Ntp1300
Rp1301
(dp1302
g7
I1
sg8
(lp1303
g755
ag756
ag757
ag758
ag758
ag759
ag760
ag761
ag762
ag763
ag764
ag765
ag766
ag767
ag768
ag769
ag770
ag770
ag771
ag772
ag773
ag774
ag775
ag776
ag777
ag778
ag779
ag780
ag781
ag782
ag783
ag784
ag785
ag786
ag787
ag788
ag789
ag790
ag791
ag792
asg64
g1049
sg66
g823
sg68
g964
sbag1
(g2
g3
Ntp1304
Rp1305
(dp1306
g7
I0
sg8
(lp1307
g538
ag539
ag540
ag541
ag542
ag543
ag544
ag545
ag546
ag547
ag548
ag549
ag550
ag551
ag552
ag553
ag554
ag555
ag556
ag557
ag558
ag559
ag560
ag561
ag562
asg64
g1293
sg66
g583
sg68
g958
sbag1
(g2
g3
Ntp1308
Rp1309
(dp1310
g7
I1
sg8
g1057
sg64
g1080
sg66
g1081
sg68
g69
sbag1
(g2
g3
Ntp1311
Rp1312
(dp1313
g7
I2
sg8
(lp1314
g677
ag678
ag679
ag680
ag681
ag682
ag683
ag684
ag685
ag686
ag687
ag688
ag689
ag690
ag691
ag692
ag693
ag694
ag695
ag696
ag697
ag698
ag699
ag700
ag701
ag702
asg64
g996
sg66
g704
sg68
g958
sbag1
(g2
g3
Ntp1315
Rp1316
(dp1317
g7
I0
sg8
(lp1318
S'1886996'
p1319
aS'81200278'
p1320
aS'87602030'
p1321
aS'52304977'
p1322
aS'33760909'
p1323
aS'15249775'
p1324
aS'82968410'
p1325
aS'670011'
p1326
aS'78243495'
p1327
aS'7106649'
p1328
aS'84524083'
p1329
aS'58040377'
p1330
aS'16097870'
p1331
aS'31897288'
p1332
aS'63634350'
p1333
aS'27925117'
p1334
aS'22731474'
p1335
aS'34765676'
p1336
aS'5976174'
p1337
aS'85236626'
p1338
aS'72652638'
p1339
aS'83869542'
p1340
aS'43027916'
p1341
aS'81022997'
p1342
aS'99975346'
p1343
aS'57086672'
p1344
aS'51566595'
p1345
aS'48678993'
p1346
aS'5739011'
p1347
aS'58736785'
p1348
aS'35315956'
p1349
aS'61443567'
p1350
asg64
S'32'
p1351
sg66
S'Heuristieken 2'
p1352
sg68
g69
sbag1
(g2
g3
Ntp1353
Rp1354
(dp1355
g7
I1
sg8
g1004
sg64
g1043
sg66
g1044
sg68
g69
sbag1
(g2
g3
Ntp1356
Rp1357
(dp1358
g7
I0
sg8
(lp1359
S'1886996'
p1360
aS'70844780'
p1361
aS'78136904'
p1362
aS'27064249'
p1363
aS'86807027'
p1364
aS'3168419'
p1365
aS'75997788'
p1366
aS'23547619'
p1367
aS'62613937'
p1368
aS'47477884'
p1369
aS'72683344'
p1370
aS'72577292'
p1371
aS'20883994'
p1372
aS'72665524'
p1373
aS'60352393'
p1374
aS'92665222'
p1375
aS'40633534'
p1376
aS'28618400'
p1377
aS'39429093'
p1378
aS'14847953'
p1379
asg64
S'20'
p1380
sg66
S'Advanced Heuristics'
p1381
sg68
g69
sbag1
(g2
g3
Ntp1382
Rp1383
(dp1384
g7
I0
sg8
(lp1385
sg64
S'15'
p1386
sg66
g1087
sg68
g958
sbag1
(g2
g3
Ntp1387
Rp1388
(dp1389
g7
I3
sg8
(lp1390
sg64
S'0'
p1391
sg66
S'empty'
p1392
sg68
g69
sbag1
(g2
g3
Ntp1393
Rp1394
(dp1395
g7
I1
sg8
(lp1396
g492
ag493
ag494
ag495
ag496
ag497
ag498
ag499
ag500
ag501
ag502
ag503
ag504
ag505
ag506
ag507
ag508
ag509
ag510
ag511
asg64
S'20'
p1397
sg66
g527
sg68
g958
sbag1
(g2
g3
Ntp1398
Rp1399
(dp1400
g7
I0
sg8
(lp1401
g1005
ag1006
ag1007
ag1008
ag1009
ag1010
ag1011
ag1012
ag1013
ag1014
ag1015
ag1016
ag1017
ag1018
ag1019
ag1020
ag1021
ag1022
ag1023
ag1024
asg64
S'20'
p1402
sg66
g1044
sg68
g958
sbag1
(g2
g3
Ntp1403
Rp1404
(dp1405
g7
I0
sg8
(lp1406
g1360
ag1361
ag1362
ag1363
ag1364
ag1365
ag1366
ag1367
ag1368
ag1369
asg64
S'10'
p1407
sg66
g1381
sg68
g964
sbag1
(g2
g3
Ntp1408
Rp1409
(dp1410
g7
I0
sg8
(lp1411
S'13284244'
p1412
aS'42778953'
p1413
aS'63939720'
p1414
aS'34691309'
p1415
aS'77831658'
p1416
aS'86807027'
p1417
aS'7957843'
p1418
aS'19214659'
p1419
aS'63573738'
p1420
aS'37419523'
p1421
aS'40911986'
p1422
aS'14941752'
p1423
aS'48308205'
p1424
aS'72895450'
p1425
aS'6939933'
p1426
asg64
S'15'
p1427
sg66
S'Project Numerical Recipes'
p1428
sg68
g964
sbag1
(g2
g3
Ntp1429
Rp1430
(dp1431
g7
I2
sg8
(lp1432
g310
ag311
ag312
ag313
ag314
ag315
ag316
ag317
ag318
ag319
ag320
ag321
ag322
ag323
ag324
ag325
ag326
ag327
ag328
ag329
asg64
S'20'
p1433
sg66
g332
sg68
g958
sbag1
(g2
g3
Ntp1434
Rp1435
(dp1436
g7
I3
sg8
(lp1437
g330
asg64
g1433
sg66
g332
sg68
g958
sbag1
(g2
g3
Ntp1438
Rp1439
(dp1440
g7
I1
sg8
(lp1441
g1257
ag1258
ag1259
ag1260
ag1261
ag1262
ag1263
ag1264
ag1265
ag1266
asg64
S'10'
p1442
sg66
g1275
sg68
g964
sbag1
(g2
g3
Ntp1443
Rp1444
(dp1445
g7
I0
sg8
(lp1446
g1058
ag1059
ag1060
ag1061
ag1062
ag1063
ag1064
ag1065
ag1066
ag1067
asg64
S'10'
p1447
sg66
g1081
sg68
g958
sbag1
(g2
g3
Ntp1448
Rp1449
(dp1450
g7
I2
sg8
g1390
sg64
g1391
sg66
g1392
sg68
g69
sbag1
(g2
g3
Ntp1451
Rp1452
(dp1453
g7
I2
sg8
(lp1454
S'60352393'
p1455
aS'40343779'
p1456
aS'44901052'
p1457
aS'4709948'
p1458
aS'64246605'
p1459
aS'77392404'
p1460
aS'26207525'
p1461
aS'56121590'
p1462
aS'19058315'
p1463
aS'87830198'
p1464
aS'81022997'
p1465
aS'66120270'
p1466
aS'48678993'
p1467
aS'37744525'
p1468
aS'25330192'
p1469
aS'28618400'
p1470
aS'34243356'
p1471
aS'12170832'
p1472
aS'29640619'
p1473
aS'56191333'
p1474
asg64
S'20'
p1475
sg66
S'Netwerken en systeembeveiliging'
p1476
sg68
g964
sbag1
(g2
g3
Ntp1477
Rp1478
(dp1479
g7
I0
sg8
(lp1480
S'82066165'
p1481
aS'8522855'
p1482
aS'69459473'
p1483
aS'88737765'
p1484
aS'87602030'
p1485
aS'66701209'
p1486
aS'41644639'
p1487
aS'46701583'
p1488
aS'51673172'
p1489
aS'14398123'
p1490
aS'5526560'
p1491
aS'94467156'
p1492
aS'34773179'
p1493
aS'25994016'
p1494
aS'74361881'
p1495
asg64
S'15'
p1496
sg66
S'Project Genetic Algorithms'
p1497
sg68
g964
sbag1
(g2
g3
Ntp1498
Rp1499
(dp1500
g7
I2
sg8
(lp1501
g1078
ag1079
asg64
S'10'
p1502
sg66
g1081
sg68
g964
sbag1
(g2
g3
Ntp1503
Rp1504
(dp1505
g7
I2
sg8
(lp1506
S'81022997'
p1507
aS'21070547'
p1508
aS'81116418'
p1509
aS'32183908'
p1510
aS'60312776'
p1511
aS'13996448'
p1512
aS'42406214'
p1513
aS'28618400'
p1514
aS'88752563'
p1515
aS'90103047'
p1516
aS'2550487'
p1517
aS'89338938'
p1518
aS'12430748'
p1519
aS'48503689'
p1520
asg64
g1427
sg66
g1428
sg68
g964
sbag1
(g2
g3
Ntp1521
Rp1522
(dp1523
g7
I0
sg8
(lp1524
g912
ag913
ag914
ag915
ag916
ag917
ag918
ag919
ag920
ag921
ag922
ag923
ag924
ag925
ag926
ag927
ag928
ag929
ag930
ag931
asg64
S'20'
p1525
sg66
g952
sg68
g964
sbag1
(g2
g3
Ntp1526
Rp1527
(dp1528
g7
I1
sg8
(lp1529
g1370
ag1371
ag1372
ag1373
ag1374
ag1375
ag1376
ag1377
ag1378
ag1379
asg64
g1407
sg66
g1381
sg68
g964
sbag1
(g2
g3
Ntp1530
Rp1531
(dp1532
g7
I2
sg8
(lp1533
g512
ag513
ag514
ag515
ag516
ag517
ag518
ag519
ag520
ag521
ag522
ag523
ag524
ag525
asg64
S'20'
p1534
sg66
g527
sg68
g964
sbag1
(g2
g3
Ntp1535
Rp1536
(dp1537
g7
I1
sg8
(lp1538
g932
ag933
ag934
ag935
ag936
ag937
ag938
ag939
ag940
ag941
ag942
ag943
ag944
ag945
ag946
ag947
ag948
ag949
ag950
asg64
g1525
sg66
g952
sg68
g964
sbag1
(g2
g3
Ntp1539
Rp1540
(dp1541
g7
I0
sg8
(lp1542
sg64
S'15'
p1543
sg66
g1087
sg68
g964
sbag1
(g2
g3
Ntp1544
Rp1545
(dp1546
g7
I2
sg8
(lp1547
g377
ag378
ag379
ag380
ag381
ag382
ag383
ag384
ag385
ag386
ag387
asg64
S'20'
p1548
sg66
g389
sg68
g958
sbag1
(g2
g3
Ntp1549
Rp1550
(dp1551
g7
I3
sg8
(lp1552
g330
asg64
S'20'
p1553
sg66
g332
sg68
g964
sbag1
(g2
g3
Ntp1554
Rp1555
(dp1556
g7
I1
sg8
(lp1557
g290
ag291
ag292
ag293
ag294
ag295
ag296
ag297
ag298
ag299
ag300
ag301
ag302
ag303
ag304
ag305
ag306
ag307
ag308
ag309
asg64
g1433
sg66
g332
sg68
g958
sbag1
(g2
g3
Ntp1558
Rp1559
(dp1560
g7
I0
sg8
g1390
sg64
g1391
sg66
g1392
sg68
g69
sbag1
(g2
g3
Ntp1561
Rp1562
(dp1563
g7
I9
sg8
g1390
sg64
g1391
sg66
g1392
sg68
g69
sbag1
(g2
g3
Ntp1564
Rp1565
(dp1566
g7
I1
sg8
(lp1567
S'54772132'
p1568
aS'45414528'
p1569
aS'70113753'
p1570
aS'58332004'
p1571
aS'51593625'
p1572
aS'1048485'
p1573
aS'34900967'
p1574
aS'2317551'
p1575
aS'31416266'
p1576
aS'88597745'
p1577
aS'94467156'
p1578
aS'15902055'
p1579
aS'10702778'
p1580
aS'38499176'
p1581
aS'92778619'
p1582
aS'33776961'
p1583
aS'99272880'
p1584
aS'62701040'
p1585
aS'58040377'
p1586
aS'86291592'
p1587
asg64
S'20'
p1588
sg66
S'Programmeren in Java 2'
p1589
sg68
g964
sbag1
(g2
g3
Ntp1590
Rp1591
(dp1592
g7
I1
sg8
(lp1593
g239
ag240
ag241
ag242
ag243
ag244
ag245
ag246
ag247
ag248
ag249
ag250
ag251
ag252
ag253
ag254
ag255
ag256
ag257
ag258
asg64
S'20'
p1594
sg66
g265
sg68
g964
sbag1
(g2
g3
Ntp1595
Rp1596
(dp1597
g7
I0
sg8
(lp1598
sg64
S'15'
p1599
sg66
S'Zoeken, sturen en bewegen'
p1600
sg68
g964
sbag1
(g2
g3
Ntp1601
Rp1602
(dp1603
g7
I0
sg8
(lp1604
g1058
ag1059
ag1060
ag1061
ag1062
ag1063
ag1064
ag1065
ag1066
ag1067
asg64
g1502
sg66
g1081
sg68
g964
sbag1
(g2
g3
Ntp1605
Rp1606
(dp1607
g7
I4
sg8
(lp1608
S'94955328'
p1609
aS'90296821'
p1610
aS'4709948'
p1611
aS'58469172'
p1612
aS'68601184'
p1613
aS'92977271'
p1614
aS'79167252'
p1615
aS'17823206'
p1616
aS'39905995'
p1617
aS'4921119'
p1618
aS'83415514'
p1619
aS'47982619'
p1620
aS'88263855'
p1621
aS'37399898'
p1622
aS'64053722'
p1623
aS'34262212'
p1624
aS'21964491'
p1625
aS'20830477'
p1626
aS'97019450'
p1627
aS'73196865'
p1628
aS'63111000'
p1629
aS'27187154'
p1630
aS'6913074'
p1631
aS'8464817'
p1632
aS'51791169'
p1633
aS'77896638'
p1634
aS'23983476'
p1635
aS'64600457'
p1636
aS'22288615'
p1637
aS'23391676'
p1638
aS'94687383'
p1639
aS'6723948'
p1640
aS'55474917'
p1641
aS'13996448'
p1642
aS'37744525'
p1643
aS'80135353'
p1644
aS'39459642'
p1645
aS'2550487'
p1646
aS'79879876'
p1647
aS'7386961'
p1648
aS'9332762'
p1649
aS'10698627'
p1650
aS'29640619'
p1651
aS'41153310'
p1652
aS'61443567'
p1653
aS'70072978'
p1654
aS'9731271'
p1655
aS'12782624'
p1656
aS'48503689'
p1657
aS'23658570'
p1658
asg64
g1588
sg66
g1589
sg68
g964
sbag1
(g2
g3
Ntp1659
Rp1660
(dp1661
g7
I1
sg8
(lp1662
g1339
ag1340
ag1341
ag1342
ag1343
ag1344
ag1345
ag1346
ag1347
ag1348
ag1349
ag1350
asg64
S'20'
p1663
sg66
g1352
sg68
g958
sbag1
(g2
g3
Ntp1664
Rp1665
(dp1666
g7
I0
sg8
(lp1667
S'54395877'
p1668
aS'41585485'
p1669
aS'28943658'
p1670
aS'73893840'
p1671
aS'23257088'
p1672
aS'91196968'
p1673
aS'86988337'
p1674
aS'86807027'
p1675
aS'22826928'
p1676
aS'60661905'
p1677
aS'96054456'
p1678
aS'27582862'
p1679
aS'15249775'
p1680
aS'46701583'
p1681
aS'66433883'
p1682
aS'3678531'
p1683
aS'64393888'
p1684
aS'93566383'
p1685
aS'670011'
p1686
aS'7492204'
p1687
asg64
g1588
sg66
g1589
sg68
g964
sbag1
(g2
g3
Ntp1688
Rp1689
(dp1690
g7
I0
sg8
(lp1691
g219
ag220
ag221
ag222
ag223
ag224
ag225
ag226
ag227
ag228
ag229
ag230
ag231
ag232
ag233
ag234
ag235
ag236
ag237
ag238
asg64
S'20'
p1692
sg66
g265
sg68
g958
sbag1
(g2
g3
Ntp1693
Rp1694
(dp1695
g7
I1
sg8
(lp1696
g492
ag493
ag494
ag495
ag496
ag497
ag498
ag499
ag500
ag501
ag502
ag503
ag504
ag505
ag506
ag507
ag508
ag509
ag510
ag511
asg64
g1534
sg66
g527
sg68
g964
sbag1
(g2
g3
Ntp1697
Rp1698
(dp1699
g7
I1
sg8
(lp1700
g357
ag358
ag359
ag360
ag361
ag362
ag363
ag364
ag365
ag366
ag367
ag368
ag369
ag370
ag371
ag372
ag373
ag374
ag375
ag376
asg64
g1548
sg66
g389
sg68
g958
sbag1
(g2
g3
Ntp1701
Rp1702
(dp1703
g7
I0
sg8
(lp1704
g472
ag473
ag474
ag475
ag476
ag477
ag478
ag479
ag480
ag481
ag482
ag483
ag484
ag485
ag486
ag487
ag488
ag489
ag490
ag491
asg64
g1534
sg66
g527
sg68
g964
sbag1
(g2
g3
Ntp1705
Rp1706
(dp1707
g7
I1
sg8
(lp1708
g1068
ag1069
ag1070
ag1071
ag1072
ag1073
ag1074
ag1075
ag1076
ag1077
asg64
g1447
sg66
g1081
sg68
g958
sbag1
(g2
g3
Ntp1709
Rp1710
(dp1711
g7
I7
sg8
g1390
sg64
g1391
sg66
g1392
sg68
g69
sbag1
(g2
g3
Ntp1712
Rp1713
(dp1714
g7
I1
sg8
(lp1715
g1068
ag1069
ag1070
ag1071
ag1072
ag1073
ag1074
ag1075
ag1076
ag1077
asg64
g1502
sg66
g1081
sg68
g964
sbag1
(g2
g3
Ntp1716
Rp1717
(dp1718
g7
I2
sg8
(lp1719
g1078
ag1079
asg64
g1447
sg66
g1081
sg68
g958
sbag1
(g2
g3
Ntp1720
Rp1721
(dp1722
g7
I1
sg8
(lp1723
g1257
ag1258
ag1259
ag1260
ag1261
ag1262
ag1263
ag1264
ag1265
ag1266
asg64
S'10'
p1724
sg66
g1275
sg68
g958
sbag1
(g2
g3
Ntp1725
Rp1726
(dp1727
g7
I0
sg8
(lp1728
g472
ag473
ag474
ag475
ag476
ag477
ag478
ag479
ag480
ag481
ag482
ag483
ag484
ag485
ag486
ag487
ag488
ag489
ag490
ag491
asg64
g1397
sg66
g527
sg68
g958
sbag1
(g2
g3
Ntp1729
Rp1730
(dp1731
g7
I5
sg8
g1390
sg64
g1391
sg66
g1392
sg68
g69
sbag1
(g2
g3
Ntp1732
Rp1733
(dp1734
g7
I2
sg8
(lp1735
g310
ag311
ag312
ag313
ag314
ag315
ag316
ag317
ag318
ag319
ag320
ag321
ag322
ag323
ag324
ag325
ag326
ag327
ag328
ag329
asg64
g1553
sg66
g332
sg68
g964
sbag1
(g2
g3
Ntp1736
Rp1737
(dp1738
g7
I1
sg8
g1390
sg64
g1391
sg66
g1392
sg68
g69
sbag1
(g2
g3
Ntp1739
Rp1740
(dp1741
g7
I3
sg8
(lp1742
S'97136582'
p1743
aS'62363761'
p1744
aS'9731271'
p1745
aS'72456780'
p1746
asg64
g1475
sg66
g1476
sg68
g964
sbag1
(g2
g3
Ntp1747
Rp1748
(dp1749
g7
I1
sg8
(lp1750
S'55480737'
p1751
aS'24613625'
p1752
aS'68409833'
p1753
aS'99283252'
p1754
aS'27925117'
p1755
aS'86180471'
p1756
aS'75680261'
p1757
aS'58253841'
p1758
aS'27950803'
p1759
aS'25077484'
p1760
aS'14179347'
p1761
aS'40633534'
p1762
aS'76924297'
p1763
aS'87830198'
p1764
aS'41578612'
p1765
asg64
g1496
sg66
g1497
sg68
g964
sbag1
(g2
g3
Ntp1766
Rp1767
(dp1768
g7
I1
sg8
(lp1769
g239
ag240
ag241
ag242
ag243
ag244
ag245
ag246
ag247
ag248
ag249
ag250
ag251
ag252
ag253
ag254
ag255
ag256
ag257
ag258
asg64
g1692
sg66
g265
sg68
g958
sbag1
(g2
g3
Ntp1770
Rp1771
(dp1772
g7
I0
sg8
(lp1773
g912
ag913
ag914
ag915
ag916
ag917
ag918
ag919
ag920
ag921
ag922
ag923
ag924
ag925
ag926
ag927
ag928
ag929
ag930
ag931
asg64
S'20'
p1774
sg66
g952
sg68
g958
sbag1
(g2
g3
Ntp1775
Rp1776
(dp1777
g7
I0
sg8
(lp1778
g270
ag271
ag272
ag273
ag274
ag275
ag276
ag277
ag278
ag279
ag280
ag281
ag282
ag283
ag284
ag285
ag286
ag287
ag288
ag289
asg64
g1553
sg66
g332
sg68
g964
sbag1
(g2
g3
Ntp1779
Rp1780
(dp1781
g7
I2
sg8
(lp1782
sg64
g1599
sg66
g1600
sg68
g964
sbag1
(g2
g3
Ntp1783
Rp1784
(dp1785
g7
I1
sg8
(lp1786
g290
ag291
ag292
ag293
ag294
ag295
ag296
ag297
ag298
ag299
ag300
ag301
ag302
ag303
ag304
ag305
ag306
ag307
ag308
ag309
asg64
g1553
sg66
g332
sg68
g964
sbag1
(g2
g3
Ntp1787
Rp1788
(dp1789
g7
I0
sg8
(lp1790
g1319
ag1320
ag1321
ag1322
ag1323
ag1324
ag1325
ag1326
ag1327
ag1328
ag1329
ag1330
ag1331
ag1332
ag1333
ag1334
ag1335
ag1336
ag1337
ag1338
asg64
g1663
sg66
g1352
sg68
g958
sbag1
(g2
g3
Ntp1791
Rp1792
(dp1793
g7
I0
sg8
(lp1794
g270
ag271
ag272
ag273
ag274
ag275
ag276
ag277
ag278
ag279
ag280
ag281
ag282
ag283
ag284
ag285
ag286
ag287
ag288
ag289
asg64
g1433
sg66
g332
sg68
g958
sbag1
(g2
g3
Ntp1795
Rp1796
(dp1797
g7
I2
sg8
(lp1798
g259
ag260
ag261
ag262
ag263
asg64
g1692
sg66
g265
sg68
g958
sbag1
(g2
g3
Ntp1799
Rp1800
(dp1801
g7
I2
sg8
(lp1802
g512
ag513
ag514
ag515
ag516
ag517
ag518
ag519
ag520
ag521
ag522
ag523
ag524
ag525
asg64
g1397
sg66
g527
sg68
g958
sbag1
(g2
g3
Ntp1803
Rp1804
(dp1805
g7
I4
sg8
g1390
sg64
g1391
sg66
g1392
sg68
g69
sbag1
(g2
g3
Ntp1806
Rp1807
(dp1808
g7
I2
sg8
(lp1809
g259
ag260
ag261
ag262
ag263
asg64
g1594
sg66
g265
sg68
g964
sbag1
(g2
g3
Ntp1810
Rp1811
(dp1812
g7
I1
sg8
(lp1813
sg64
g1599
sg66
g1600
sg68
g964
sbag1
(g2
g3
Ntp1814
Rp1815
(dp1816
g7
I5
sg8
g1608
sg64
g1588
sg66
g1589
sg68
g964
sbag1
(g2
g3
Ntp1817
Rp1818
(dp1819
g7
I1
sg8
(lp1820
g1025
ag1026
ag1027
ag1028
ag1029
ag1030
ag1031
ag1032
ag1033
ag1034
ag1035
ag1036
ag1037
ag1038
ag1039
ag1040
ag1041
ag1042
asg64
g1402
sg66
g1044
sg68
g958
sbag1
(g2
g3
Ntp1821
Rp1822
(dp1823
g7
I10
sg8
g1390
sg64
g1391
sg66
g1392
sg68
g69
sbag1
(g2
g3
Ntp1824
Rp1825
(dp1826
g7
I0
sg8
(lp1827
g1247
ag1248
ag1249
ag1250
ag1251
ag1252
ag1253
ag1254
ag1255
ag1256
asg64
g1724
sg66
g1275
sg68
g958
sbag1
(g2
g3
Ntp1828
Rp1829
(dp1830
g7
I2
sg8
(lp1831
g1267
ag1268
ag1269
ag1270
ag1271
ag1272
ag1273
asg64
g1442
sg66
g1275
sg68
g964
sbag1
(g2
g3
Ntp1832
Rp1833
(dp1834
g7
I6
sg8
g1390
sg64
g1391
sg66
g1392
sg68
g69
sbag1
(g2
g3
Ntp1835
Rp1836
(dp1837
g7
I2
sg8
(lp1838
S'47477884'
p1839
aS'77960666'
p1840
aS'63634350'
p1841
aS'44391517'
p1842
aS'86000192'
p1843
aS'56749879'
p1844
aS'53585410'
p1845
aS'26857113'
p1846
aS'44671041'
p1847
aS'63096281'
p1848
aS'88519892'
p1849
aS'85284256'
p1850
aS'2416751'
p1851
aS'36903574'
p1852
aS'64947290'
p1853
aS'85236626'
p1854
aS'20618153'
p1855
aS'23215240'
p1856
aS'37279234'
p1857
aS'62105897'
p1858
asg64
g1588
sg66
g1589
sg68
g964
sbag1
(g2
g3
Ntp1859
Rp1860
(dp1861
g7
I1
sg8
(lp1862
sg64
g1543
sg66
g1087
sg68
g964
sbag1
(g2
g3
Ntp1863
Rp1864
(dp1865
g7
I0
sg8
(lp1866
g1247
ag1248
ag1249
ag1250
ag1251
ag1252
ag1253
ag1254
ag1255
ag1256
asg64
g1442
sg66
g1275
sg68
g964
sbag1
(g2
g3
Ntp1867
Rp1868
(dp1869
g7
I8
sg8
g1390
sg64
g1391
sg66
g1392
sg68
g69
sbag1
(g2
g3
Ntp1870
Rp1871
(dp1872
g7
I1
sg8
(lp1873
g932
ag933
ag934
ag935
ag936
ag937
ag938
ag939
ag940
ag941
ag942
ag943
ag944
ag945
ag946
ag947
ag948
ag949
ag950
asg64
g1774
sg66
g952
sg68
g958
sbag1
(g2
g3
Ntp1874
Rp1875
(dp1876
g7
I3
sg8
g1608
sg64
g1588
sg66
g1589
sg68
g964
sbag1
(g2
g3
Ntp1877
Rp1878
(dp1879
g7
I1
sg8
(lp1880
sg64
g1386
sg66
g1087
sg68
g958
sbag1
(g2
g3
Ntp1881
Rp1882
(dp1883
g7
I1
sg8
(lp1884
S'1048485'
p1885
aS'535689'
p1886
aS'38499176'
p1887
aS'59887191'
p1888
aS'86291592'
p1889
aS'21677389'
p1890
aS'1696500'
p1891
aS'16912993'
p1892
aS'72586808'
p1893
aS'30195935'
p1894
aS'75664412'
p1895
aS'85284256'
p1896
aS'31247305'
p1897
aS'72665524'
p1898
aS'36903574'
p1899
aS'123355'
p1900
aS'3883025'
p1901
aS'4353500'
p1902
aS'25557516'
p1903
aS'7308727'
p1904
asg64
g1475
sg66
g1476
sg68
g964
sbag1
(g2
g3
Ntp1905
Rp1906
(dp1907
g7
I0
sg8
(lp1908
g337
ag338
ag339
ag340
ag341
ag342
ag343
ag344
ag345
ag346
ag347
ag348
ag349
ag350
ag351
ag352
ag353
ag354
ag355
ag356
asg64
g1548
sg66
g389
sg68
g958
sbag1
(g2
g3
Ntp1909
Rp1910
(dp1911
g7
I1
sg8
(lp1912
S'62356458'
p1913
aS'73823548'
p1914
aS'75005528'
p1915
aS'3685034'
p1916
aS'1766560'
p1917
aS'86291592'
p1918
aS'11068043'
p1919
aS'84110134'
p1920
aS'13092455'
p1921
aS'22731474'
p1922
aS'32044893'
p1923
aS'7308727'
p1924
aS'19662602'
p1925
aS'73236988'
p1926
aS'74182182'
p1927
asg64
g1427
sg66
g1428
sg68
g964
sbag1
(g2
g3
Ntp1928
Rp1929
(dp1930
g7
I0
sg8
(lp1931
S'82689818'
p1932
aS'81385263'
p1933
aS'51741554'
p1934
aS'70844780'
p1935
aS'97135019'
p1936
aS'8522855'
p1937
aS'82872148'
p1938
aS'81200278'
p1939
aS'18266644'
p1940
aS'70939718'
p1941
aS'62736669'
p1942
aS'7957843'
p1943
aS'5590289'
p1944
aS'63573738'
p1945
aS'57467488'
p1946
aS'53267490'
p1947
aS'59075181'
p1948
aS'33930505'
p1949
aS'54772132'
p1950
aS'14398123'
p1951
asg64
g1475
sg66
g1476
sg68
g964
sbag1
(g2
g3
Ntp1952
Rp1953
(dp1954
g7
I2
sg8
(lp1955
g1267
ag1268
ag1269
ag1270
ag1271
ag1272
ag1273
asg64
g1724
sg66
g1275
sg68
g958
sbag1
(g2
g3
Ntp1956
Rp1957
(dp1958
g7
I2
sg8
(lp1959
S'48678993'
p1960
aS'76661016'
p1961
aS'78821918'
p1962
aS'37770881'
p1963
aS'25106480'
p1964
aS'84449005'
p1965
asg64
g1496
sg66
g1497
sg68
g964
sbag1
(g2
g3
Ntp1966
Rp1967
(dp1968
g7
I0
sg8
(lp1969
g219
ag220
ag221
ag222
ag223
ag224
ag225
ag226
ag227
ag228
ag229
ag230
ag231
ag232
ag233
ag234
ag235
ag236
ag237
ag238
asg64
g1594
sg66
g265
sg68
g964
sbag1
(g2
g3
Ntp1970
Rp1971
(dp1972
g7
I11
sg8
g1390
sg64
g1391
sg66
g1392
sg68
g69
sba.