(lp0
ccopy_reg
_reconstructor
p1
(cbase
Lessons
p2
c__builtin__
object
p3
Ntp4
Rp5
(dp6
S'sort'
p7
I0
sS'students'
p8
(lp9
S'13218321'
p10
aS'36748818'
p11
aS'50184318'
p12
aS'27916487'
p13
aS'5517869'
p14
aS'96082155'
p15
aS'68315599'
p16
aS'1181560'
p17
aS'66621166'
p18
aS'85335143'
p19
aS'49219163'
p20
aS'78243495'
p21
aS'58332004'
p22
aS'77376714'
p23
aS'33776961'
p24
aS'1766560'
p25
aS'43680781'
p26
aS'75997788'
p27
aS'27241113'
p28
aS'29526540'
p29
aS'36527838'
p30
aS'13911001'
p31
aS'99283252'
p32
aS'51650744'
p33
aS'46570285'
p34
aS'30658799'
p35
aS'3883025'
p36
aS'58699305'
p37
aS'18144425'
p38
aS'17222374'
p39
aS'4709948'
p40
aS'83415514'
p41
aS'49631542'
p42
aS'83266686'
p43
aS'78544592'
p44
aS'42171678'
p45
aS'14309255'
p46
aS'63111000'
p47
aS'41489515'
p48
aS'59111489'
p49
aS'64600457'
p50
aS'78821918'
p51
aS'89180944'
p52
aS'11741347'
p53
aS'58592894'
p54
aS'11996292'
p55
aS'47462856'
p56
aS'48198668'
p57
aS'70072978'
p58
aS'78443067'
p59
aS'15051051'
p60
aS'84449005'
p61
aS'24277163'
p62
aS'75521763'
p63
asS'amount'
p64
S'54'
p65
sS'name'
p66
S'Moderne Databases'
p67
sS'group_name'
p68
S'hc'
p69
sbag1
(g2
g3
Ntp70
Rp71
(dp72
g7
I0
sg8
(lp73
S'6709529'
p74
aS'56348773'
p75
aS'51741554'
p76
aS'97135019'
p77
aS'27064249'
p78
aS'70939718'
p79
aS'93361408'
p80
aS'59220392'
p81
aS'5615125'
p82
aS'87602030'
p83
aS'86807027'
p84
aS'96054456'
p85
aS'33760909'
p86
aS'46701583'
p87
aS'3678531'
p88
aS'65978354'
p89
aS'47932106'
p90
aS'26260141'
p91
aS'27298319'
p92
aS'85335143'
p93
aS'4546613'
p94
aS'53139134'
p95
aS'6939933'
p96
aS'38179241'
p97
aS'10149535'
p98
aS'73823548'
p99
aS'15902055'
p100
aS'75585647'
p101
aS'58040377'
p102
aS'16097870'
p103
aS'10792879'
p104
aS'75997788'
p105
aS'88855695'
p106
aS'81155296'
p107
aS'87900893'
p108
aS'78735049'
p109
aS'14303208'
p110
aS'47477884'
p111
aS'44868097'
p112
aS'56872729'
p113
aS'77306636'
p114
aS'63634350'
p115
aS'86000192'
p116
aS'4783858'
p117
aS'75623387'
p118
aS'27925117'
p119
aS'53585410'
p120
aS'46570285'
p121
aS'40141996'
p122
aS'86180471'
p123
aS'79888156'
p124
aS'58253841'
p125
aS'72665524'
p126
aS'82412626'
p127
aS'38296757'
p128
aS'58699305'
p129
aS'37279234'
p130
aS'62105897'
p131
aS'22168693'
p132
aS'65408517'
p133
aS'72526473'
p134
aS'48357272'
p135
aS'80188025'
p136
aS'73302736'
p137
aS'12091019'
p138
aS'14179347'
p139
aS'58469172'
p140
aS'34173695'
p141
aS'64228258'
p142
aS'79167252'
p143
aS'55412918'
p144
aS'74182182'
p145
aS'83415514'
p146
aS'83266686'
p147
aS'94686490'
p148
aS'14591033'
p149
aS'24875739'
p150
aS'78544592'
p151
aS'14816774'
p152
aS'27187154'
p153
aS'31306819'
p154
aS'6913074'
p155
aS'55530367'
p156
aS'64600457'
p157
aS'32705005'
p158
aS'23628642'
p159
aS'6723948'
p160
aS'11593163'
p161
aS'76661016'
p162
aS'45915482'
p163
aS'75446434'
p164
aS'79617364'
p165
aS'56544130'
p166
aS'88752563'
p167
aS'21029457'
p168
aS'58592894'
p169
aS'23565001'
p170
aS'62363761'
p171
aS'78443067'
p172
aS'9731271'
p173
aS'28957789'
p174
aS'61520025'
p175
aS'19717077'
p176
aS'33672995'
p177
aS'10609762'
p178
aS'23658570'
p179
asg64
S'106'
p180
sg66
S'Calculus 2'
p181
sg68
g69
sbag1
(g2
g3
Ntp182
Rp183
(dp184
g7
I0
sg8
(lp185
S'81200278'
p186
aS'77831658'
p187
aS'56815156'
p188
aS'22826928'
p189
aS'96054456'
p190
aS'3168419'
p191
aS'59544049'
p192
aS'33930505'
p193
aS'74131924'
p194
aS'85335143'
p195
aS'5298748'
p196
aS'28359697'
p197
aS'43680781'
p198
aS'247918'
p199
aS'54026378'
p200
aS'11068043'
p201
aS'29526540'
p202
aS'44868097'
p203
aS'58522654'
p204
aS'24613625'
p205
aS'56749879'
p206
aS'22731474'
p207
aS'30195935'
p208
aS'20883994'
p209
aS'7308727'
p210
aS'88176729'
p211
aS'73236988'
p212
aS'89985072'
p213
aS'4568018'
p214
aS'53202517'
p215
aS'21964491'
p216
aS'14591033'
p217
aS'14816774'
p218
aS'42196732'
p219
aS'6913074'
p220
aS'66120270'
p221
aS'64600457'
p222
aS'6723948'
p223
aS'79617364'
p224
aS'33877725'
p225
aS'21029457'
p226
aS'70878567'
p227
aS'96453361'
p228
aS'15051051'
p229
aS'30050930'
p230
asg64
S'45'
p231
sg66
S'Bioinformatica'
p232
sg68
g69
sbag1
(g2
g3
Ntp233
Rp234
(dp235
g7
I0
sg8
(lp236
S'52311353'
p237
aS'64296965'
p238
aS'22871048'
p239
aS'18266644'
p240
aS'88737765'
p241
aS'36785409'
p242
aS'77831658'
p243
aS'56815156'
p244
aS'60661905'
p245
aS'13718298'
p246
aS'78822885'
p247
aS'85335143'
p248
aS'18477924'
p249
aS'14637758'
p250
aS'58480929'
p251
aS'34900967'
p252
aS'16097870'
p253
aS'75997788'
p254
aS'51542218'
p255
aS'62613937'
p256
aS'97838175'
p257
aS'42115591'
p258
aS'72586808'
p259
aS'23798155'
p260
aS'48357272'
p261
aS'80188025'
p262
aS'73302736'
p263
aS'94955328'
p264
aS'83443653'
p265
aS'4921119'
p266
aS'82854435'
p267
aS'43027916'
p268
aS'97019450'
p269
aS'65318664'
p270
aS'87830198'
p271
aS'70193386'
p272
aS'57086672'
p273
aS'41578612'
p274
aS'48678993'
p275
aS'5595824'
p276
aS'56544130'
p277
aS'78821918'
p278
aS'34243356'
p279
aS'5085194'
p280
aS'23565001'
p281
aS'73350019'
p282
aS'72456780'
p283
aS'33672995'
p284
aS'23658570'
p285
asg64
S'49'
p286
sg66
S'Analysemethoden en -technieken'
p287
sg68
g69
sbag1
(g2
g3
Ntp288
Rp289
(dp290
g7
I1
sg8
(lp291
S'52311353'
p292
aS'42778953'
p293
aS'81385263'
p294
aS'54074680'
p295
aS'62872965'
p296
aS'91196968'
p297
aS'5517869'
p298
aS'90743504'
p299
aS'16011419'
p300
aS'93566383'
p301
aS'670011'
p302
aS'87758823'
p303
aS'48308205'
p304
aS'71839156'
p305
aS'36508571'
p306
aS'10149535'
p307
aS'31416266'
p308
aS'80709893'
p309
aS'38499176'
p310
aS'75005528'
p311
aS'16097870'
p312
aS'96118484'
p313
aS'34588570'
p314
aS'79937969'
p315
aS'36527838'
p316
aS'56872729'
p317
aS'42115591'
p318
aS'68409833'
p319
aS'61060652'
p320
aS'58866007'
p321
aS'3474870'
p322
aS'94955328'
p323
aS'35330349'
p324
aS'80998260'
p325
aS'55412918'
p326
aS'74182182'
p327
aS'4921119'
p328
aS'37399898'
p329
aS'94686490'
p330
aS'14591033'
p331
aS'42196732'
p332
aS'81218347'
p333
aS'77896638'
p334
aS'41578612'
p335
aS'55474917'
p336
aS'79617364'
p337
aS'34243356'
p338
aS'26172512'
p339
aS'16333449'
p340
aS'83210352'
p341
aS'32595335'
p342
aS'66570705'
p343
aS'23565001'
p344
aS'21311067'
p345
asg64
S'54'
p346
sg66
S'Lineaire Algebra'
p347
sg68
g69
sbag1
(g2
g3
Ntp348
Rp349
(dp350
g7
I0
sg8
(lp351
S'64296965'
p352
aS'78136904'
p353
aS'8522855'
p354
aS'41585485'
p355
aS'18266644'
p356
aS'5368702'
p357
aS'20239127'
p358
aS'5615125'
p359
aS'44940353'
p360
aS'14671406'
p361
aS'91196968'
p362
aS'77636749'
p363
aS'54569540'
p364
aS'96054456'
p365
aS'65003379'
p366
aS'39919665'
p367
aS'59075181'
p368
aS'59544049'
p369
aS'31633723'
p370
aS'7492204'
p371
aS'11915563'
p372
aS'58332004'
p373
aS'14398123'
p374
aS'91139627'
p375
aS'84524083'
p376
aS'94467156'
p377
aS'38499176'
p378
aS'3685034'
p379
aS'99272880'
p380
aS'10792879'
p381
aS'51542218'
p382
aS'38329455'
p383
aS'79366078'
p384
aS'78735049'
p385
aS'63634350'
p386
aS'51186803'
p387
aS'58522654'
p388
aS'42115591'
p389
aS'56749879'
p390
aS'84110134'
p391
aS'54310617'
p392
aS'10872825'
p393
aS'46570285'
p394
aS'22731474'
p395
aS'23798155'
p396
aS'20883994'
p397
aS'47605891'
p398
aS'77240949'
p399
aS'31247305'
p400
aS'36903574'
p401
aS'41527759'
p402
aS'72547110'
p403
aS'94955328'
p404
aS'58469172'
p405
aS'76924297'
p406
aS'74182182'
p407
aS'17823206'
p408
aS'39659121'
p409
aS'49631542'
p410
aS'20331158'
p411
aS'34262212'
p412
aS'14591033'
p413
aS'24875739'
p414
aS'63408522'
p415
aS'97019450'
p416
aS'27187154'
p417
aS'61518436'
p418
aS'97371272'
p419
aS'81218347'
p420
aS'79858178'
p421
aS'32705005'
p422
aS'23391676'
p423
aS'55474917'
p424
aS'82688900'
p425
aS'69086548'
p426
aS'63955238'
p427
aS'34243356'
p428
aS'37498675'
p429
aS'47462856'
p430
aS'89338938'
p431
aS'9731271'
p432
aS'56988998'
p433
aS'28957789'
p434
aS'39230359'
p435
asg64
S'84'
p436
sg66
S'Kansrekenen 2'
p437
sg68
g69
sbag1
(g2
g3
Ntp438
Rp439
(dp440
g7
I0
sg8
(lp441
S'82066165'
p442
aS'13284244'
p443
aS'42778953'
p444
aS'81385263'
p445
aS'44151631'
p446
aS'40791377'
p447
aS'5368702'
p448
aS'86988337'
p449
aS'12077419'
p450
aS'7957843'
p451
aS'15911353'
p452
aS'66701209'
p453
aS'41644639'
p454
aS'51673172'
p455
aS'50143947'
p456
aS'68315599'
p457
aS'75599734'
p458
aS'79033175'
p459
aS'54772132'
p460
aS'65852230'
p461
aS'11915563'
p462
aS'48308205'
p463
aS'72895450'
p464
aS'14383795'
p465
aS'51472074'
p466
aS'71839156'
p467
aS'49683101'
p468
aS'535689'
p469
aS'2317551'
p470
aS'84524083'
p471
aS'38499176'
p472
aS'11459236'
p473
aS'1766560'
p474
aS'99272880'
p475
aS'43689934'
p476
aS'10792879'
p477
aS'88855695'
p478
aS'47260040'
p479
aS'86291592'
p480
aS'1695839'
p481
aS'14303208'
p482
aS'11068043'
p483
aS'25994016'
p484
aS'13911001'
p485
ag485
aS'88596522'
p486
aS'74361881'
p487
aS'76802764'
p488
aS'63634350'
p489
aS'58522654'
p490
aS'44391517'
p491
aS'24613625'
p492
aS'53585410'
p493
aS'64418623'
p494
aS'30658799'
p495
aS'75664412'
p496
aS'3407554'
p497
ag497
aS'1665980'
p498
aS'72665524'
p499
aS'34872117'
p500
aS'27950803'
p501
aS'23215240'
p502
aS'92665222'
p503
aS'73236988'
p504
aS'42297781'
p505
aS'79167252'
p506
aS'89985072'
p507
aS'95631564'
p508
aS'83266686'
p509
aS'4568018'
p510
aS'53202517'
p511
aS'57595888'
p512
aS'9067939'
p513
aS'14309255'
p514
aS'75759231'
p515
aS'27187154'
p516
aS'32204977'
p517
aS'8464817'
p518
aS'55103073'
p519
aS'77896638'
p520
aS'60312776'
p521
aS'94687383'
p522
aS'6723948'
p523
aS'76661016'
p524
aS'5595824'
p525
aS'80135353'
p526
aS'26406342'
p527
aS'39459642'
p528
aS'34243356'
p529
aS'88752563'
p530
aS'11741347'
p531
aS'34110913'
p532
aS'46989508'
p533
aS'65675896'
p534
aS'14138904'
p535
aS'91250534'
p536
aS'88636924'
p537
aS'5085194'
p538
aS'98105190'
p539
aS'95007221'
p540
aS'31194811'
p541
aS'5892092'
p542
aS'65960683'
p543
aS'37770881'
p544
aS'2079771'
p545
aS'72796858'
p546
aS'48503689'
p547
aS'52715680'
p548
asg64
S'109'
p549
sg66
S'Compilerbouw'
p550
sg68
g69
sbag1
(g2
g3
Ntp551
Rp552
(dp553
g7
I0
sg8
(lp554
S'70844780'
p555
aS'78136904'
p556
aS'22871048'
p557
aS'96554914'
p558
aS'20239127'
p559
aS'51415617'
p560
aS'36785409'
p561
aS'49922855'
p562
aS'86988337'
p563
aS'54569540'
p564
aS'22826928'
p565
aS'60661905'
p566
aS'13718298'
p567
aS'27370083'
p568
aS'20095994'
p569
aS'99453514'
p570
aS'5298748'
p571
aS'84524083'
p572
aS'92778619'
p573
aS'3685034'
p574
aS'33776961'
p575
aS'43680781'
p576
aS'77960666'
p577
aS'13092455'
p578
aS'27950803'
p579
aS'27805666'
p580
aS'37110913'
p581
aS'32044893'
p582
aS'38296757'
p583
aS'60352393'
p584
aS'4709948'
p585
aS'77392404'
p586
aS'37399898'
p587
aS'36213792'
p588
aS'82390428'
p589
aS'87830198'
p590
aS'90474003'
p591
aS'99975346'
p592
aS'70193386'
p593
aS'6913074'
p594
aS'61518436'
p595
aS'57086672'
p596
aS'41578612'
p597
aS'42406214'
p598
aS'68286356'
p599
aS'59753700'
p600
aS'13658563'
p601
aS'84449005'
p602
aS'24277163'
p603
aS'51052738'
p604
aS'52715680'
p605
asg64
S'51'
p606
sg66
S'Reflectie op de digitale cultuur'
p607
sg68
g69
sbag1
(g2
g3
Ntp608
Rp609
(dp610
g7
I0
sg8
(lp611
S'22871048'
p612
aS'86807027'
p613
aS'57467488'
p614
aS'59075181'
p615
aS'14941752'
p616
aS'71839156'
p617
aS'87210640'
p618
aS'45660925'
p619
aS'66122625'
p620
aS'75997788'
p621
aS'97417002'
p622
aS'31897288'
p623
aS'1696500'
p624
aS'4783858'
p625
aS'56749879'
p626
aS'61060652'
p627
aS'36903574'
p628
aS'37110913'
p629
aS'4353500'
p630
aS'76393508'
p631
aS'48357272'
p632
aS'44901052'
p633
aS'83443653'
p634
aS'92977271'
p635
aS'19858730'
p636
aS'20331158'
p637
aS'4568018'
p638
aS'14591033'
p639
aS'42171678'
p640
aS'14816774'
p641
aS'20830477'
p642
aS'97019450'
p643
aS'81218347'
p644
aS'79879876'
p645
aS'58736785'
p646
aS'11996292'
p647
aS'14138904'
p648
aS'22323043'
p649
aS'98105190'
p650
aS'13658563'
p651
aS'53775014'
p652
aS'53107172'
p653
aS'75521763'
p654
aS'94930277'
p655
asg64
S'44'
p656
sg66
S'Heuristieken 1'
p657
sg68
g69
sbag1
(g2
g3
Ntp658
Rp659
(dp660
g7
I0
sg8
(lp661
S'13534377'
p662
aS'50184318'
p663
aS'64296965'
p664
aS'42778953'
p665
aS'82689818'
p666
aS'51741554'
p667
aS'97135019'
p668
aS'46052388'
p669
aS'1075391'
p670
aS'45556081'
p671
aS'5517869'
p672
aS'33760909'
p673
aS'64393888'
p674
aS'50143947'
p675
aS'87758823'
p676
aS'31416266'
p677
aS'15902055'
p678
aS'34773179'
p679
aS'62701040'
p680
aS'48601268'
p681
aS'86291592'
p682
aS'22699561'
p683
aS'23547619'
p684
aS'3233378'
p685
aS'1696500'
p686
aS'58522654'
p687
aS'86000192'
p688
aS'4783858'
p689
aS'72577292'
p690
aS'54310617'
p691
aS'13092455'
p692
aS'17575088'
p693
aS'1665980'
p694
aS'96104167'
p695
aS'77240949'
p696
aS'29474737'
p697
aS'7308727'
p698
aS'76123484'
p699
aS'17222374'
p700
aS'35330349'
p701
aS'68601184'
p702
aS'64228258'
p703
aS'57595888'
p704
aS'21964491'
p705
aS'42171678'
p706
aS'43027916'
p707
aS'28357474'
p708
aS'42196732'
p709
aS'77896638'
p710
aS'60312776'
p711
aS'26406342'
p712
aS'9332762'
p713
aS'29640619'
p714
aS'61443567'
p715
aS'73980360'
p716
aS'65960683'
p717
aS'37770881'
p718
aS'25106480'
p719
aS'53107172'
p720
aS'24277163'
p721
aS'75521763'
p722
asg64
S'61'
p723
sg66
S'Collectieve Intelligentie'
p724
sg68
g69
sbag1
(g2
g3
Ntp725
Rp726
(dp727
g7
I1
sg8
g554
sg64
g606
sg66
g607
sg68
g69
sbag1
(g2
g3
Ntp728
Rp729
(dp730
g7
I0
sg8
(lp731
S'64296965'
p732
aS'82689818'
p733
aS'23257088'
p734
aS'5517869'
p735
aS'62736669'
p736
aS'86988337'
p737
aS'96054456'
p738
aS'670011'
p739
aS'57467488'
p740
aS'47932106'
p741
aS'3168419'
p742
aS'4529208'
p743
aS'59397895'
p744
aS'13132925'
p745
aS'58332004'
p746
aS'5526560'
p747
aS'73823548'
p748
aS'54540997'
p749
aS'75005528'
p750
aS'58083680'
p751
aS'51542218'
p752
aS'247918'
p753
aS'29526540'
p754
aS'47477884'
p755
aS'77960666'
p756
aS'40434933'
p757
aS'56872729'
p758
aS'56749879'
p759
aS'13092455'
p760
aS'40141996'
p761
aS'86180471'
p762
aS'34872117'
p763
aS'64947290'
p764
aS'25077484'
p765
aS'27123462'
p766
aS'60352393'
p767
aS'76123484'
p768
aS'43902015'
p769
aS'17222374'
p770
aS'52552718'
p771
aS'12091019'
p772
aS'91527663'
p773
aS'26207525'
p774
aS'56121590'
p775
aS'4921119'
p776
aS'49631542'
p777
aS'94686490'
p778
aS'83869542'
p779
aS'43027916'
p780
aS'14816774'
p781
aS'90474003'
p782
aS'42196732'
p783
aS'15187217'
p784
aS'51566595'
p785
aS'77896638'
p786
aS'26406342'
p787
aS'39459642'
p788
aS'78821918'
p789
aS'88752563'
p790
aS'58592894'
p791
aS'11996292'
p792
aS'46989508'
p793
aS'29640619'
p794
aS'56191333'
p795
aS'37701751'
p796
aS'17092717'
p797
aS'5085194'
p798
aS'70072978'
p799
aS'72796858'
p800
aS'24277163'
p801
aS'72456780'
p802
aS'23658570'
p803
asg64
S'72'
p804
sg66
S'Databases 2'
p805
sg68
g69
sbag1
(g2
g3
Ntp806
Rp807
(dp808
g7
I2
sg8
g661
sg64
g723
sg66
g724
sg68
g69
sbag1
(g2
g3
Ntp809
Rp810
(dp811
g7
I0
sg8
g291
sg64
g346
sg66
g347
sg68
g69
sbag1
(g2
g3
Ntp812
Rp813
(dp814
g7
I1
sg8
g185
sg64
g231
sg66
g232
sg68
g69
sbag1
(g2
g3
Ntp815
Rp816
(dp817
g7
I1
sg8
g661
sg64
g723
sg66
g724
sg68
g69
sbag1
(g2
g3
Ntp818
Rp819
(dp820
g7
I2
sg8
g185
sg64
g231
sg66
g232
sg68
g69
sbag1
(g2
g3
Ntp821
Rp822
(dp823
g7
I1
sg8
g441
sg64
g549
sg66
g550
sg68
g69
sbag1
(g2
g3
Ntp824
Rp825
(dp826
g7
I1
sg8
g351
sg64
g436
sg66
g437
sg68
g69
sbag1
(g2
g3
Ntp827
Rp828
(dp829
g7
I0
sg8
(lp830
S'52311353'
p831
aS'70015932'
p832
aS'82872148'
p833
aS'22871048'
p834
aS'96554914'
p835
aS'14671406'
p836
aS'13718298'
p837
aS'27582862'
p838
aS'58565406'
p839
aS'3727435'
p840
aS'50143947'
p841
aS'26260141'
p842
aS'75599734'
p843
aS'31103066'
p844
aS'59544049'
p845
aS'31633723'
p846
aS'37830626'
p847
aS'11915563'
p848
aS'78243495'
p849
aS'4546613'
p850
aS'51593625'
p851
aS'1048485'
p852
aS'43460038'
p853
aS'62356458'
p854
aS'77376714'
p855
aS'94467156'
p856
aS'80709893'
p857
aS'48601268'
p858
aS'54026378'
p859
aS'11068043'
p860
aS'3233378'
p861
aS'44868097'
p862
aS'21095566'
p863
aS'42115591'
p864
aS'68409833'
p865
aS'99283252'
p866
aS'4783858'
p867
aS'84110134'
p868
aS'44671041'
p869
aS'61060652'
p870
aS'5976174'
p871
aS'31247305'
p872
aS'27950803'
p873
aS'62105897'
p874
aS'41527759'
p875
aS'65408517'
p876
aS'88176729'
p877
aS'40343779'
p878
aS'52552718'
p879
aS'48357272'
p880
aS'73302736'
p881
aS'73236988'
p882
aS'14072826'
p883
aS'9287708'
p884
aS'89985072'
p885
aS'95631564'
p886
aS'4568018'
p887
aS'14309255'
p888
aS'65318664'
p889
aS'28357474'
p890
aS'60312776'
p891
aS'55474917'
p892
aS'37744525'
p893
aS'45915482'
p894
aS'89180944'
p895
aS'33877725'
p896
aS'83210352'
p897
aS'29640619'
p898
aS'89338938'
p899
aS'41153310'
p900
aS'22323043'
p901
aS'78443067'
p902
aS'25106480'
p903
aS'58074656'
p904
aS'52715680'
p905
asg64
S'75'
p906
sg66
S'Software engineering'
p907
sg68
g69
sbag1
(g2
g3
Ntp908
Rp909
(dp910
g7
I1
sg8
(lp911
g772
ag773
ag774
ag775
ag776
ag777
ag778
ag779
ag780
ag781
ag782
ag783
ag784
ag785
ag786
ag787
ag788
ag789
ag790
ag791
ag792
ag793
ag794
ag795
ag796
ag797
ag798
ag799
ag800
ag801
ag802
ag803
asg64
S'40'
p912
sg66
g805
sg68
S'wc'
p913
sbag1
(g2
g3
Ntp914
Rp915
(dp916
g7
I0
sg8
(lp917
S'82689818'
p918
aS'81385263'
p919
aS'78136904'
p920
aS'8522855'
p921
aS'41585485'
p922
aS'19540225'
p923
aS'14671406'
p924
aS'86988337'
p925
aS'12077419'
p926
aS'46701583'
p927
aS'66433883'
p928
aS'50143947'
p929
aS'57467488'
p930
aS'26260141'
p931
aS'27298319'
p932
aS'72895450'
p933
aS'77376714'
p934
aS'15902055'
p935
aS'88596522'
p936
aS'21095566'
p937
aS'53585410'
p938
aS'67817269'
p939
aS'34765676'
p940
aS'1665980'
p941
aS'5976174'
p942
asg64
S'25'
p943
sg66
S'Algoritmen en complexiteit'
p944
sg68
S'pr'
p945
sbag1
(g2
g3
Ntp946
Rp947
(dp948
g7
I1
sg8
(lp949
g482
ag483
ag484
ag485
ag485
ag486
ag487
ag488
ag489
ag490
ag491
ag492
ag493
ag494
ag495
ag496
ag497
ag497
ag498
ag499
ag500
ag501
ag502
ag503
ag504
ag505
ag506
ag507
ag508
ag509
ag510
ag511
ag512
ag513
ag514
ag515
ag516
ag517
ag518
ag519
asg64
S'40'
p950
sg66
g550
sg68
g945
sbag1
(g2
g3
Ntp951
Rp952
(dp953
g7
I0
sg8
(lp954
g918
ag919
ag920
ag921
ag922
ag923
ag924
ag925
ag926
ag927
ag928
ag929
ag930
ag931
ag932
ag933
ag934
ag935
ag936
ag937
ag938
ag939
ag940
ag941
ag942
aS'36903574'
p955
aS'64947290'
p956
aS'3474870'
p957
aS'41527759'
p958
aS'43902015'
p959
aS'40343779'
p960
aS'91527663'
p961
aS'64554442'
p962
aS'21964491'
p963
aS'51566595'
p964
aS'51509565'
p965
aS'23983476'
p966
aS'3707829'
p967
aS'58592894'
p968
aS'96453361'
p969
aS'44828429'
p970
aS'23652927'
p971
aS'52715680'
p972
asg64
S'43'
p973
sg66
g944
sg68
g69
sbag1
(g2
g3
Ntp974
Rp975
(dp976
g7
I1
sg8
(lp977
S'40791377'
p978
aS'46701583'
p979
aS'49683101'
p980
aS'94467156'
p981
aS'3685034'
p982
aS'26857113'
p983
aS'90067329'
p984
aS'23798155'
p985
aS'5976174'
p986
aS'77240949'
p987
aS'85236626'
p988
aS'38296757'
p989
aS'33252501'
p990
aS'63111000'
p991
aS'27187154'
p992
aS'61518436'
p993
aS'67625383'
p994
aS'37744525'
p995
aS'39459642'
p996
aS'15051051'
p997
aS'56988998'
p998
aS'2079771'
p999
asg64
S'22'
p1000
sg66
S'Machine Learning'
p1001
sg68
g69
sbag1
(g2
g3
Ntp1002
Rp1003
(dp1004
g7
I2
sg8
(lp1005
g154
ag155
ag156
ag157
ag158
ag159
ag160
ag161
ag162
ag163
ag164
ag165
ag166
ag167
ag168
ag169
ag170
ag171
ag172
ag173
ag174
ag175
ag176
ag177
ag178
ag179
asg64
S'40'
p1006
sg66
g181
sg68
g913
sbag1
(g2
g3
Ntp1007
Rp1008
(dp1009
g7
I1
sg8
(lp1010
S'76903244'
p1011
aS'53512831'
p1012
aS'27064249'
p1013
aS'69459473'
p1014
aS'5615125'
p1015
aS'24891081'
p1016
aS'67073567'
p1017
aS'78243495'
p1018
aS'72895450'
p1019
aS'49908313'
p1020
aS'43460038'
p1021
aS'41790793'
p1022
aS'6249823'
p1023
aS'14303208'
p1024
aS'40434933'
p1025
aS'72577292'
p1026
aS'1137946'
p1027
aS'2416751'
p1028
aS'20618153'
p1029
aS'3474870'
p1030
aS'76123484'
p1031
aS'43902015'
p1032
aS'64228258'
p1033
aS'77392404'
p1034
aS'53202517'
p1035
aS'66034145'
p1036
aS'57086672'
p1037
aS'22288615'
p1038
aS'76648468'
p1039
aS'89180944'
p1040
aS'33877725'
p1041
aS'16333449'
p1042
aS'10698627'
p1043
aS'61443567'
p1044
aS'17092717'
p1045
aS'28358060'
p1046
aS'94930277'
p1047
aS'39230359'
p1048
aS'14847953'
p1049
asg64
S'39'
p1050
sg66
S'Webprogrammeren en databases'
p1051
sg68
g69
sbag1
(g2
g3
Ntp1052
Rp1053
(dp1054
g7
I1
sg8
(lp1055
g482
ag483
ag484
ag485
ag485
ag486
ag487
ag488
ag489
ag490
ag491
ag492
ag493
ag494
ag495
ag496
ag497
ag497
ag498
ag499
ag500
ag501
ag502
ag503
ag504
ag505
ag506
ag507
ag508
ag509
ag510
ag511
ag512
ag513
ag514
ag515
ag516
ag517
ag518
ag519
asg64
S'40'
p1056
sg66
g550
sg68
g913
sbag1
(g2
g3
Ntp1057
Rp1058
(dp1059
g7
I0
sg8
(lp1060
g612
ag613
ag614
ag615
ag616
ag617
ag618
ag619
ag620
ag621
ag622
ag623
ag624
ag625
ag626
ag627
ag628
ag629
ag630
ag631
ag632
ag633
ag634
ag635
ag636
asg64
S'25'
p1061
sg66
g657
sg68
g913
sbag1
(g2
g3
Ntp1062
Rp1063
(dp1064
g7
I1
sg8
(lp1065
g114
ag115
ag116
ag117
ag118
ag119
ag120
ag121
ag122
ag123
ag124
ag125
ag126
ag127
ag128
ag129
ag130
ag131
ag132
ag133
ag134
ag135
ag136
ag137
ag138
ag139
ag140
ag141
ag142
ag143
ag144
ag145
ag146
ag147
ag148
ag149
ag150
ag151
ag152
ag153
asg64
g1006
sg66
g181
sg68
g913
sbag1
(g2
g3
Ntp1066
Rp1067
(dp1068
g7
I2
sg8
(lp1069
g520
ag521
ag522
ag523
ag524
ag525
ag526
ag527
ag528
ag529
ag530
ag531
ag532
ag533
ag534
ag535
ag536
ag537
ag538
ag539
ag540
ag541
ag542
ag543
ag544
ag545
ag546
ag547
ag548
asg64
g950
sg66
g550
sg68
g945
sbag1
(g2
g3
Ntp1070
Rp1071
(dp1072
g7
I0
sg8
(lp1073
g442
ag443
ag444
ag445
ag446
ag447
ag448
ag449
ag450
ag451
ag452
ag453
ag454
ag455
ag456
ag457
ag458
ag459
ag460
ag461
ag462
ag463
ag464
ag465
ag466
ag467
ag468
ag469
ag470
ag471
ag472
ag473
ag474
ag475
ag476
ag477
ag478
ag479
ag480
ag481
asg64
g950
sg66
g550
sg68
g945
sbag1
(g2
g3
Ntp1074
Rp1075
(dp1076
g7
I0
sg8
(lp1077
g831
ag832
ag833
ag834
ag835
ag836
ag837
ag838
ag839
ag840
ag841
ag842
ag843
ag844
ag845
ag846
ag847
ag848
ag849
ag850
ag851
ag852
ag853
ag854
ag855
ag856
ag857
ag858
ag859
ag860
ag861
ag862
ag863
ag864
ag865
ag866
ag867
ag868
ag869
ag870
asg64
S'40'
p1078
sg66
g907
sg68
g913
sbag1
(g2
g3
Ntp1079
Rp1080
(dp1081
g7
I0
sg8
(lp1082
sg64
S'21'
p1083
sg66
S'Informatie- en organisatieontwerp'
p1084
sg68
g69
sbag1
(g2
g3
Ntp1085
Rp1086
(dp1087
g7
I0
sg8
(lp1088
g442
ag443
ag444
ag445
ag446
ag447
ag448
ag449
ag450
ag451
ag452
ag453
ag454
ag455
ag456
ag457
ag458
ag459
ag460
ag461
ag462
ag463
ag464
ag465
ag466
ag467
ag468
ag469
ag470
ag471
ag472
ag473
ag474
ag475
ag476
ag477
ag478
ag479
ag480
ag481
asg64
g1056
sg66
g550
sg68
g913
sbag1
(g2
g3
Ntp1089
Rp1090
(dp1091
g7
I0
sg8
(lp1092
g74
ag75
ag76
ag77
ag78
ag79
ag80
ag81
ag82
ag83
ag84
ag85
ag86
ag87
ag88
ag89
ag90
ag91
ag92
ag93
ag94
ag95
ag96
ag97
ag98
ag99
ag100
ag101
ag102
ag103
ag104
ag105
ag106
ag107
ag108
ag109
ag110
ag111
ag112
ag113
asg64
g1006
sg66
g181
sg68
g913
sbag1
(g2
g3
Ntp1093
Rp1094
(dp1095
g7
I0
sg8
(lp1096
g831
ag832
ag833
ag834
ag835
ag836
ag837
ag838
ag839
ag840
ag841
ag842
ag843
ag844
ag845
ag846
ag847
ag848
ag849
ag850
ag851
ag852
ag853
ag854
ag855
ag856
ag857
ag858
ag859
ag860
ag861
ag862
ag863
ag864
ag865
ag866
ag867
ag868
ag869
ag870
asg64
S'40'
p1097
sg66
g907
sg68
g945
sbag1
(g2
g3
Ntp1098
Rp1099
(dp1100
g7
I0
sg8
(lp1101
S'52311353'
p1102
aS'93023961'
p1103
aS'81200278'
p1104
aS'91196968'
p1105
aS'50143947'
p1106
aS'74131924'
p1107
aS'45414528'
p1108
aS'19337738'
p1109
aS'99453514'
p1110
aS'87314964'
p1111
aS'66122625'
p1112
aS'87900893'
p1113
aS'13116738'
p1114
aS'37110913'
p1115
aS'17823206'
p1116
aS'21964491'
p1117
aS'81022997'
p1118
aS'51566595'
p1119
aS'13996448'
p1120
aS'37744525'
p1121
aS'25330192'
p1122
aS'68360259'
p1123
aS'59753700'
p1124
aS'70878567'
p1125
aS'97136582'
p1126
aS'22323043'
p1127
aS'98780382'
p1128
asg64
S'27'
p1129
sg66
S'Data Mining'
p1130
sg68
g69
sbag1
(g2
g3
Ntp1131
Rp1132
(dp1133
g7
I1
sg8
(lp1134
S'36785409'
p1135
aS'77636749'
p1136
aS'12077419'
p1137
aS'58565406'
p1138
aS'76487754'
p1139
aS'68315599'
p1140
aS'85335143'
p1141
aS'93041523'
p1142
aS'48308205'
p1143
aS'7106649'
p1144
aS'77264363'
p1145
aS'14383795'
p1146
aS'10149535'
p1147
aS'21192048'
p1148
aS'92496780'
p1149
aS'6249823'
p1150
aS'43680781'
p1151
aS'23547619'
p1152
aS'40434933'
p1153
aS'70336464'
p1154
aS'4697362'
p1155
aS'75664412'
p1156
aS'37110913'
p1157
aS'44901052'
p1158
aS'47982619'
p1159
aS'14309255'
p1160
aS'97371272'
p1161
aS'32204977'
p1162
aS'41578612'
p1163
aS'69086548'
p1164
aS'26406342'
p1165
aS'9332762'
p1166
aS'11996292'
p1167
aS'89338938'
p1168
aS'22323043'
p1169
aS'12430748'
p1170
aS'31194811'
p1171
aS'75521763'
p1172
asg64
S'38'
p1173
sg66
S'Technology for games'
p1174
sg68
g69
sbag1
(g2
g3
Ntp1175
Rp1176
(dp1177
g7
I1
sg8
(lp1178
S'81385263'
p1179
aS'81200278'
p1180
aS'5368702'
p1181
aS'19214659'
p1182
aS'93566383'
p1183
aS'4546613'
p1184
aS'38179241'
p1185
aS'69634191'
p1186
aS'81155296'
p1187
aS'21677389'
p1188
aS'23547619'
p1189
aS'34765676'
p1190
aS'76924297'
p1191
aS'37399898'
p1192
aS'66034145'
p1193
aS'28055464'
p1194
aS'76661016'
p1195
aS'3707829'
p1196
aS'2550487'
p1197
aS'20374340'
p1198
aS'37701751'
p1199
aS'65675896'
p1200
aS'64768422'
p1201
aS'44828429'
p1202
aS'14847953'
p1203
asg64
S'25'
p1204
sg66
S'Interactie-ontwerp'
p1205
sg68
g69
sbag1
(g2
g3
Ntp1206
Rp1207
(dp1208
g7
I1
sg8
(lp1209
g637
ag638
ag639
ag640
ag641
ag642
ag643
ag644
ag645
ag646
ag647
ag648
ag649
ag650
ag651
ag652
ag653
ag654
ag655
asg64
g1061
sg66
g657
sg68
g913
sbag1
(g2
g3
Ntp1210
Rp1211
(dp1212
g7
I2
sg8
(lp1213
g520
ag521
ag522
ag523
ag524
ag525
ag526
ag527
ag528
ag529
ag530
ag531
ag532
ag533
ag534
ag535
ag536
ag537
ag538
ag539
ag540
ag541
ag542
ag543
ag544
ag545
ag546
ag547
ag548
asg64
g1056
sg66
g550
sg68
g913
sbag1
(g2
g3
Ntp1214
Rp1215
(dp1216
g7
I1
sg8
(lp1217
S'22871048'
p1218
aS'62872965'
p1219
aS'5517869'
p1220
aS'74131924'
p1221
aS'27298319'
p1222
aS'11915563'
p1223
aS'70113753'
p1224
aS'36508571'
p1225
aS'62356458'
p1226
aS'16097870'
p1227
aS'54026378'
p1228
aS'68409833'
p1229
aS'37110913'
p1230
aS'61611295'
p1231
aS'52552718'
p1232
aS'44901052'
p1233
aS'19858730'
p1234
aS'51566595'
p1235
aS'88627897'
p1236
aS'39459642'
p1237
aS'34806836'
p1238
aS'72796858'
p1239
asg64
S'22'
p1240
sg66
S'Autonomous Agents 2'
p1241
sg68
g69
sbag1
(g2
g3
Ntp1242
Rp1243
(dp1244
g7
I1
sg8
(lp1245
g871
ag872
ag873
ag874
ag875
ag876
ag877
ag878
ag879
ag880
ag881
ag882
ag883
ag884
ag885
ag886
ag887
ag888
ag889
ag890
ag891
ag892
ag893
ag894
ag895
ag896
ag897
ag898
ag899
ag900
ag901
ag902
ag903
ag904
ag905
asg64
g1097
sg66
g907
sg68
g945
sbag1
(g2
g3
Ntp1246
Rp1247
(dp1248
g7
I0
sg8
g1010
sg64
g1050
sg66
g1051
sg68
g69
sbag1
(g2
g3
Ntp1249
Rp1250
(dp1251
g7
I1
sg8
g1082
sg64
g1083
sg66
g1084
sg68
g69
sbag1
(g2
g3
Ntp1252
Rp1253
(dp1254
g7
I0
sg8
g1217
sg64
g1240
sg66
g1241
sg68
g69
sbag1
(g2
g3
Ntp1255
Rp1256
(dp1257
g7
I1
sg8
(lp1258
g955
ag956
ag957
ag958
ag959
ag960
ag961
ag962
ag963
ag964
ag965
ag966
ag967
ag968
ag969
ag970
ag971
ag972
asg64
S'25'
p1259
sg66
g944
sg68
g913
sbag1
(g2
g3
Ntp1260
Rp1261
(dp1262
g7
I0
sg8
g977
sg64
g1000
sg66
g1001
sg68
g69
sbag1
(g2
g3
Ntp1263
Rp1264
(dp1265
g7
I1
sg8
(lp1266
g871
ag872
ag873
ag874
ag875
ag876
ag877
ag878
ag879
ag880
ag881
ag882
ag883
ag884
ag885
ag886
ag887
ag888
ag889
ag890
ag891
ag892
ag893
ag894
ag895
ag896
ag897
ag898
ag899
ag900
ag901
ag902
ag903
ag904
ag905
asg64
g1078
sg66
g907
sg68
g913
sbag1
(g2
g3
Ntp1267
Rp1268
(dp1269
g7
I1
sg8
(lp1270
S'70015932'
p1271
aS'82689818'
p1272
aS'45556081'
p1273
aS'29718115'
p1274
aS'49683101'
p1275
aS'43460038'
p1276
aS'10149535'
p1277
aS'13798030'
p1278
aS'40434933'
p1279
aS'72683344'
p1280
aS'27925117'
p1281
aS'72577292'
p1282
aS'23798155'
p1283
aS'58866007'
p1284
aS'34872117'
p1285
aS'83266686'
p1286
aS'20331158'
p1287
aS'28618400'
p1288
aS'89180944'
p1289
aS'14138904'
p1290
aS'59289233'
p1291
asg64
S'21'
p1292
sg66
S'Architectuur en computerorganisatie'
p1293
sg68
g69
sbag1
(g2
g3
Ntp1294
Rp1295
(dp1296
g7
I0
sg8
g1134
sg64
g1173
sg66
g1174
sg68
g69
sbag1
(g2
g3
Ntp1297
Rp1298
(dp1299
g7
I0
sg8
g1270
sg64
g1292
sg66
g1293
sg68
g69
sbag1
(g2
g3
Ntp1300
Rp1301
(dp1302
g7
I0
sg8
(lp1303
g732
ag733
ag734
ag735
ag736
ag737
ag738
ag739
ag740
ag741
ag742
ag743
ag744
ag745
ag746
ag747
ag748
ag749
ag750
ag751
ag752
ag753
ag754
ag755
ag756
ag757
ag758
ag759
ag760
ag761
ag762
ag763
ag764
ag765
ag766
ag767
ag768
ag769
ag770
ag771
asg64
g912
sg66
g805
sg68
g913
sbag1
(g2
g3
Ntp1304
Rp1305
(dp1306
g7
I0
sg8
g1178
sg64
g1204
sg66
g1205
sg68
g69
sbag1
(g2
g3
Ntp1307
Rp1308
(dp1309
g7
I0
sg8
(lp1310
S'1886996'
p1311
aS'81200278'
p1312
aS'87602030'
p1313
aS'52304977'
p1314
aS'33760909'
p1315
aS'15249775'
p1316
aS'82968410'
p1317
aS'670011'
p1318
aS'78243495'
p1319
aS'7106649'
p1320
aS'84524083'
p1321
aS'58040377'
p1322
aS'16097870'
p1323
aS'31897288'
p1324
aS'63634350'
p1325
aS'27925117'
p1326
aS'22731474'
p1327
aS'34765676'
p1328
aS'5976174'
p1329
aS'85236626'
p1330
aS'72652638'
p1331
aS'83869542'
p1332
aS'43027916'
p1333
aS'81022997'
p1334
aS'99975346'
p1335
aS'57086672'
p1336
aS'51566595'
p1337
aS'48678993'
p1338
aS'5739011'
p1339
aS'58736785'
p1340
aS'35315956'
p1341
aS'61443567'
p1342
asg64
S'32'
p1343
sg66
S'Heuristieken 2'
p1344
sg68
g69
sbag1
(g2
g3
Ntp1345
Rp1346
(dp1347
g7
I1
sg8
g1101
sg64
g1129
sg66
g1130
sg68
g69
sbag1
(g2
g3
Ntp1348
Rp1349
(dp1350
g7
I1
sg8
(lp1351
g955
ag956
ag957
ag958
ag959
ag960
ag961
ag962
ag963
ag964
ag965
ag966
ag967
ag968
ag969
ag970
ag971
ag972
asg64
g943
sg66
g944
sg68
g945
sbag1
(g2
g3
Ntp1352
Rp1353
(dp1354
g7
I0
sg8
(lp1355
g918
ag919
ag920
ag921
ag922
ag923
ag924
ag925
ag926
ag927
ag928
ag929
ag930
ag931
ag932
ag933
ag934
ag935
ag936
ag937
ag938
ag939
ag940
ag941
ag942
asg64
g1259
sg66
g944
sg68
g913
sbag1
(g2
g3
Ntp1356
Rp1357
(dp1358
g7
I0
sg8
(lp1359
S'1886996'
p1360
aS'70844780'
p1361
aS'78136904'
p1362
aS'27064249'
p1363
aS'86807027'
p1364
aS'3168419'
p1365
aS'75997788'
p1366
aS'23547619'
p1367
aS'62613937'
p1368
aS'47477884'
p1369
aS'72683344'
p1370
aS'72577292'
p1371
aS'20883994'
p1372
aS'72665524'
p1373
aS'60352393'
p1374
aS'92665222'
p1375
aS'40633534'
p1376
aS'28618400'
p1377
aS'39429093'
p1378
aS'14847953'
p1379
asg64
S'20'
p1380
sg66
S'Advanced Heuristics'
p1381
sg68
g69
sbag1
(g2
g3
Ntp1382
Rp1383
(dp1384
g7
I1
sg8
(lp1385
S'54772132'
p1386
aS'45414528'
p1387
aS'70113753'
p1388
aS'58332004'
p1389
aS'51593625'
p1390
aS'1048485'
p1391
aS'34900967'
p1392
aS'2317551'
p1393
aS'31416266'
p1394
aS'88597745'
p1395
aS'94467156'
p1396
aS'15902055'
p1397
aS'10702778'
p1398
aS'38499176'
p1399
aS'92778619'
p1400
aS'33776961'
p1401
aS'99272880'
p1402
aS'62701040'
p1403
aS'58040377'
p1404
aS'86291592'
p1405
asg64
S'20'
p1406
sg66
S'Programmeren in Java 2'
p1407
sg68
g945
sbag1
(g2
g3
Ntp1408
Rp1409
(dp1410
g7
I0
sg8
(lp1411
g186
ag187
ag188
ag189
ag190
ag191
ag192
ag193
ag194
ag195
ag196
ag197
ag198
ag199
ag200
ag201
ag202
ag203
ag204
ag205
asg64
S'20'
p1412
sg66
g232
sg68
g913
sbag1
(g2
g3
Ntp1413
Rp1414
(dp1415
g7
I0
sg8
(lp1416
g186
ag187
ag188
ag189
ag190
ag191
ag192
ag193
ag194
ag195
ag196
ag197
ag198
ag199
ag200
ag201
ag202
ag203
ag204
ag205
asg64
S'20'
p1417
sg66
g232
sg68
g945
sbag1
(g2
g3
Ntp1418
Rp1419
(dp1420
g7
I1
sg8
(lp1421
g1370
ag1371
ag1372
ag1373
ag1374
ag1375
ag1376
ag1377
ag1378
ag1379
asg64
S'10'
p1422
sg66
g1381
sg68
g945
sbag1
(g2
g3
Ntp1423
Rp1424
(dp1425
g7
I0
sg8
(lp1426
g10
ag11
ag12
ag13
ag14
ag15
ag16
ag17
ag18
ag19
ag20
ag21
ag22
ag23
ag24
ag25
ag26
ag27
ag28
ag29
asg64
S'20'
p1427
sg66
g67
sg68
g913
sbag1
(g2
g3
Ntp1428
Rp1429
(dp1430
g7
I0
sg8
(lp1431
g10
ag11
ag12
ag13
ag14
ag15
ag16
ag17
ag18
ag19
ag20
ag21
ag22
ag23
ag24
ag25
ag26
ag27
ag28
ag29
asg64
S'20'
p1432
sg66
g67
sg68
g945
sbag1
(g2
g3
Ntp1433
Rp1434
(dp1435
g7
I7
sg8
(lp1436
sg64
S'0'
p1437
sg66
S'empty'
p1438
sg68
g69
sbag1
(g2
g3
Ntp1439
Rp1440
(dp1441
g7
I1
sg8
(lp1442
g206
ag207
ag208
ag209
ag210
ag211
ag212
ag213
ag214
ag215
ag216
ag217
ag218
ag219
ag220
ag221
ag222
ag223
ag224
ag225
asg64
g1417
sg66
g232
sg68
g945
sbag1
(g2
g3
Ntp1443
Rp1444
(dp1445
g7
I6
sg8
g1436
sg64
g1437
sg66
g1438
sg68
g69
sbag1
(g2
g3
Ntp1446
Rp1447
(dp1448
g7
I0
sg8
(lp1449
g1135
ag1136
ag1137
ag1138
ag1139
ag1140
ag1141
ag1142
ag1143
ag1144
ag1145
ag1146
ag1147
ag1148
ag1149
ag1150
ag1151
ag1152
ag1153
ag1154
asg64
S'20'
p1450
sg66
g1174
sg68
g913
sbag1
(g2
g3
Ntp1451
Rp1452
(dp1453
g7
I0
sg8
(lp1454
sg64
S'15'
p1455
sg66
g1084
sg68
g913
sbag1
(g2
g3
Ntp1456
Rp1457
(dp1458
g7
I1
sg8
(lp1459
g1031
ag1032
ag1033
ag1034
ag1035
ag1036
ag1037
ag1038
ag1039
ag1040
ag1041
ag1042
ag1043
ag1044
ag1045
ag1046
ag1047
ag1048
ag1049
asg64
S'20'
p1460
sg66
g1051
sg68
g945
sbag1
(g2
g3
Ntp1461
Rp1462
(dp1463
g7
I4
sg8
(lp1464
S'94955328'
p1465
aS'90296821'
p1466
aS'4709948'
p1467
aS'58469172'
p1468
aS'68601184'
p1469
aS'92977271'
p1470
aS'79167252'
p1471
aS'17823206'
p1472
aS'39905995'
p1473
aS'4921119'
p1474
aS'83415514'
p1475
aS'47982619'
p1476
aS'88263855'
p1477
aS'37399898'
p1478
aS'64053722'
p1479
aS'34262212'
p1480
aS'21964491'
p1481
aS'20830477'
p1482
aS'97019450'
p1483
aS'73196865'
p1484
aS'63111000'
p1485
aS'27187154'
p1486
aS'6913074'
p1487
aS'8464817'
p1488
aS'51791169'
p1489
aS'77896638'
p1490
aS'23983476'
p1491
aS'64600457'
p1492
aS'22288615'
p1493
aS'23391676'
p1494
aS'94687383'
p1495
aS'6723948'
p1496
aS'55474917'
p1497
aS'13996448'
p1498
aS'37744525'
p1499
aS'80135353'
p1500
aS'39459642'
p1501
aS'2550487'
p1502
aS'79879876'
p1503
aS'7386961'
p1504
aS'9332762'
p1505
aS'10698627'
p1506
aS'29640619'
p1507
aS'41153310'
p1508
aS'61443567'
p1509
aS'70072978'
p1510
aS'9731271'
p1511
aS'12782624'
p1512
aS'48503689'
p1513
aS'23658570'
p1514
asg64
g1406
sg66
g1407
sg68
g945
sbag1
(g2
g3
Ntp1515
Rp1516
(dp1517
g7
I2
sg8
(lp1518
sg64
S'15'
p1519
sg66
S'Zoeken, sturen en bewegen'
p1520
sg68
g945
sbag1
(g2
g3
Ntp1521
Rp1522
(dp1523
g7
I4
sg8
g1436
sg64
g1437
sg66
g1438
sg68
g69
sbag1
(g2
g3
Ntp1524
Rp1525
(dp1526
g7
I0
sg8
g1436
sg64
g1437
sg66
g1438
sg68
g69
sbag1
(g2
g3
Ntp1527
Rp1528
(dp1529
g7
I1
sg8
(lp1530
g1112
ag1113
ag1114
ag1115
ag1116
ag1117
ag1118
ag1119
ag1120
ag1121
asg64
S'10'
p1531
sg66
g1130
sg68
g945
sbag1
(g2
g3
Ntp1532
Rp1533
(dp1534
g7
I1
sg8
(lp1535
g206
ag207
ag208
ag209
ag210
ag211
ag212
ag213
ag214
ag215
ag216
ag217
ag218
ag219
ag220
ag221
ag222
ag223
ag224
ag225
asg64
g1412
sg66
g232
sg68
g913
sbag1
(g2
g3
Ntp1536
Rp1537
(dp1538
g7
I8
sg8
g1436
sg64
g1437
sg66
g1438
sg68
g69
sbag1
(g2
g3
Ntp1539
Rp1540
(dp1541
g7
I2
sg8
(lp1542
S'48678993'
p1543
aS'76661016'
p1544
aS'78821918'
p1545
aS'37770881'
p1546
aS'25106480'
p1547
aS'84449005'
p1548
asg64
S'15'
p1549
sg66
S'Project Genetic Algorithms'
p1550
sg68
g945
sbag1
(g2
g3
Ntp1551
Rp1552
(dp1553
g7
I0
sg8
(lp1554
S'82689818'
p1555
aS'81385263'
p1556
aS'51741554'
p1557
aS'70844780'
p1558
aS'97135019'
p1559
aS'8522855'
p1560
aS'82872148'
p1561
aS'81200278'
p1562
aS'18266644'
p1563
aS'70939718'
p1564
aS'62736669'
p1565
aS'7957843'
p1566
aS'5590289'
p1567
aS'63573738'
p1568
aS'57467488'
p1569
aS'53267490'
p1570
aS'59075181'
p1571
aS'33930505'
p1572
aS'54772132'
p1573
aS'14398123'
p1574
asg64
S'20'
p1575
sg66
S'Netwerken en systeembeveiliging'
p1576
sg68
g945
sbag1
(g2
g3
Ntp1577
Rp1578
(dp1579
g7
I0
sg8
(lp1580
g1360
ag1361
ag1362
ag1363
ag1364
ag1365
ag1366
ag1367
ag1368
ag1369
asg64
g1422
sg66
g1381
sg68
g945
sbag1
(g2
g3
Ntp1581
Rp1582
(dp1583
g7
I0
sg8
(lp1584
g662
ag663
ag664
ag665
ag666
ag667
ag668
ag669
ag670
ag671
ag672
ag673
ag674
ag675
ag676
ag677
ag678
ag679
ag680
ag681
asg64
S'20'
p1585
sg66
g724
sg68
g913
sbag1
(g2
g3
Ntp1586
Rp1587
(dp1588
g7
I1
sg8
(lp1589
S'1048485'
p1590
aS'535689'
p1591
aS'38499176'
p1592
aS'59887191'
p1593
aS'86291592'
p1594
aS'21677389'
p1595
aS'1696500'
p1596
aS'16912993'
p1597
aS'72586808'
p1598
aS'30195935'
p1599
aS'75664412'
p1600
aS'85284256'
p1601
aS'31247305'
p1602
aS'72665524'
p1603
aS'36903574'
p1604
aS'123355'
p1605
aS'3883025'
p1606
aS'4353500'
p1607
aS'25557516'
p1608
aS'7308727'
p1609
asg64
g1575
sg66
g1576
sg68
g945
sbag1
(g2
g3
Ntp1610
Rp1611
(dp1612
g7
I2
sg8
(lp1613
S'81022997'
p1614
aS'21070547'
p1615
aS'81116418'
p1616
aS'32183908'
p1617
aS'60312776'
p1618
aS'13996448'
p1619
aS'42406214'
p1620
aS'28618400'
p1621
aS'88752563'
p1622
aS'90103047'
p1623
aS'2550487'
p1624
aS'89338938'
p1625
aS'12430748'
p1626
aS'48503689'
p1627
asg64
S'15'
p1628
sg66
S'Project Numerical Recipes'
p1629
sg68
g945
sbag1
(g2
g3
Ntp1630
Rp1631
(dp1632
g7
I1
sg8
(lp1633
g682
ag683
ag684
ag685
ag686
ag687
ag688
ag689
ag690
ag691
ag692
ag693
ag694
ag695
ag696
ag697
ag698
ag699
ag700
ag701
asg64
g1585
sg66
g724
sg68
g913
sbag1
(g2
g3
Ntp1634
Rp1635
(dp1636
g7
I1
sg8
(lp1637
g1228
ag1229
ag1230
ag1231
ag1232
ag1233
ag1234
ag1235
ag1236
ag1237
asg64
S'10'
p1638
sg66
g1241
sg68
g913
sbag1
(g2
g3
Ntp1639
Rp1640
(dp1641
g7
I0
sg8
(lp1642
g555
ag556
ag557
ag558
ag559
ag560
ag561
ag562
ag563
ag564
ag565
ag566
ag567
ag568
ag569
ag570
ag571
ag572
ag573
ag574
asg64
S'20'
p1643
sg66
g607
sg68
g913
sbag1
(g2
g3
Ntp1644
Rp1645
(dp1646
g7
I2
sg8
(lp1647
g50
ag51
ag52
ag53
ag54
ag55
ag56
ag57
ag58
ag59
ag60
ag61
ag62
ag63
asg64
g1427
sg66
g67
sg68
g913
sbag1
(g2
g3
Ntp1648
Rp1649
(dp1650
g7
I1
sg8
g1436
sg64
g1437
sg66
g1438
sg68
g69
sbag1
(g2
g3
Ntp1651
Rp1652
(dp1653
g7
I2
sg8
(lp1654
g702
ag703
ag704
ag705
ag706
ag707
ag708
ag709
ag710
ag711
ag712
ag713
ag714
ag715
ag716
ag717
ag718
ag719
ag720
ag721
asg64
S'20'
p1655
sg66
g724
sg68
g945
sbag1
(g2
g3
Ntp1656
Rp1657
(dp1658
g7
I1
sg8
(lp1659
S'55480737'
p1660
aS'24613625'
p1661
aS'68409833'
p1662
aS'99283252'
p1663
aS'27925117'
p1664
aS'86180471'
p1665
aS'75680261'
p1666
aS'58253841'
p1667
aS'27950803'
p1668
aS'25077484'
p1669
aS'14179347'
p1670
aS'40633534'
p1671
aS'76924297'
p1672
aS'87830198'
p1673
aS'41578612'
p1674
asg64
g1549
sg66
g1550
sg68
g945
sbag1
(g2
g3
Ntp1675
Rp1676
(dp1677
g7
I3
sg8
g1436
sg64
g1437
sg66
g1438
sg68
g69
sbag1
(g2
g3
Ntp1678
Rp1679
(dp1680
g7
I3
sg8
(lp1681
S'97136582'
p1682
aS'62363761'
p1683
aS'9731271'
p1684
aS'72456780'
p1685
asg64
g1575
sg66
g1576
sg68
g945
sbag1
(g2
g3
Ntp1686
Rp1687
(dp1688
g7
I10
sg8
g1436
sg64
g1437
sg66
g1438
sg68
g69
sbag1
(g2
g3
Ntp1689
Rp1690
(dp1691
g7
I0
sg8
(lp1692
g1011
ag1012
ag1013
ag1014
ag1015
ag1016
ag1017
ag1018
ag1019
ag1020
ag1021
ag1022
ag1023
ag1024
ag1025
ag1026
ag1027
ag1028
ag1029
ag1030
asg64
S'20'
p1693
sg66
g1051
sg68
g913
sbag1
(g2
g3
Ntp1694
Rp1695
(dp1696
g7
I2
sg8
(lp1697
g1122
ag1123
ag1124
ag1125
ag1126
ag1127
ag1128
asg64
g1531
sg66
g1130
sg68
g945
sbag1
(g2
g3
Ntp1698
Rp1699
(dp1700
g7
I1
sg8
(lp1701
g1155
ag1156
ag1157
ag1158
ag1159
ag1160
ag1161
ag1162
ag1163
ag1164
ag1165
ag1166
ag1167
ag1168
ag1169
ag1170
ag1171
ag1172
asg64
g1450
sg66
g1174
sg68
g913
sbag1
(g2
g3
Ntp1702
Rp1703
(dp1704
g7
I1
sg8
(lp1705
S'62356458'
p1706
aS'73823548'
p1707
aS'75005528'
p1708
aS'3685034'
p1709
aS'1766560'
p1710
aS'86291592'
p1711
aS'11068043'
p1712
aS'84110134'
p1713
aS'13092455'
p1714
aS'22731474'
p1715
aS'32044893'
p1716
aS'7308727'
p1717
aS'19662602'
p1718
aS'73236988'
p1719
aS'74182182'
p1720
asg64
g1628
sg66
g1629
sg68
g945
sbag1
(g2
g3
Ntp1721
Rp1722
(dp1723
g7
I1
sg8
(lp1724
g682
ag683
ag684
ag685
ag686
ag687
ag688
ag689
ag690
ag691
ag692
ag693
ag694
ag695
ag696
ag697
ag698
ag699
ag700
ag701
asg64
g1655
sg66
g724
sg68
g945
sbag1
(g2
g3
Ntp1725
Rp1726
(dp1727
g7
I0
sg8
(lp1728
g1311
ag1312
ag1313
ag1314
ag1315
ag1316
ag1317
ag1318
ag1319
ag1320
ag1321
ag1322
ag1323
ag1324
ag1325
ag1326
ag1327
ag1328
ag1329
ag1330
asg64
S'20'
p1729
sg66
g1344
sg68
g913
sbag1
(g2
g3
Ntp1730
Rp1731
(dp1732
g7
I2
sg8
(lp1733
g1238
ag1239
asg64
S'10'
p1734
sg66
g1241
sg68
g945
sbag1
(g2
g3
Ntp1735
Rp1736
(dp1737
g7
I2
sg8
(lp1738
g50
ag51
ag52
ag53
ag54
ag55
ag56
ag57
ag58
ag59
ag60
ag61
ag62
ag63
asg64
g1432
sg66
g67
sg68
g945
sbag1
(g2
g3
Ntp1739
Rp1740
(dp1741
g7
I0
sg8
(lp1742
S'82066165'
p1743
aS'8522855'
p1744
aS'69459473'
p1745
aS'88737765'
p1746
aS'87602030'
p1747
aS'66701209'
p1748
aS'41644639'
p1749
aS'46701583'
p1750
aS'51673172'
p1751
aS'14398123'
p1752
aS'5526560'
p1753
aS'94467156'
p1754
aS'34773179'
p1755
aS'25994016'
p1756
aS'74361881'
p1757
asg64
g1549
sg66
g1550
sg68
g945
sbag1
(g2
g3
Ntp1758
Rp1759
(dp1760
g7
I0
sg8
(lp1761
g662
ag663
ag664
ag665
ag666
ag667
ag668
ag669
ag670
ag671
ag672
ag673
ag674
ag675
ag676
ag677
ag678
ag679
ag680
ag681
asg64
g1655
sg66
g724
sg68
g945
sbag1
(g2
g3
Ntp1762
Rp1763
(dp1764
g7
I1
sg8
(lp1765
sg64
g1455
sg66
g1084
sg68
g913
sbag1
(g2
g3
Ntp1766
Rp1767
(dp1768
g7
I3
sg8
g1464
sg64
g1406
sg66
g1407
sg68
g945
sbag1
(g2
g3
Ntp1769
Rp1770
(dp1771
g7
I1
sg8
(lp1772
sg64
S'15'
p1773
sg66
g1084
sg68
g945
sbag1
(g2
g3
Ntp1774
Rp1775
(dp1776
g7
I2
sg8
(lp1777
S'60352393'
p1778
aS'40343779'
p1779
aS'44901052'
p1780
aS'4709948'
p1781
aS'64246605'
p1782
aS'77392404'
p1783
aS'26207525'
p1784
aS'56121590'
p1785
aS'19058315'
p1786
aS'87830198'
p1787
aS'81022997'
p1788
aS'66120270'
p1789
aS'48678993'
p1790
aS'37744525'
p1791
aS'25330192'
p1792
aS'28618400'
p1793
aS'34243356'
p1794
aS'12170832'
p1795
aS'29640619'
p1796
aS'56191333'
p1797
asg64
g1575
sg66
g1576
sg68
g945
sbag1
(g2
g3
Ntp1798
Rp1799
(dp1800
g7
I5
sg8
g1464
sg64
g1406
sg66
g1407
sg68
g945
sbag1
(g2
g3
Ntp1801
Rp1802
(dp1803
g7
I0
sg8
(lp1804
sg64
g1519
sg66
g1520
sg68
g945
sbag1
(g2
g3
Ntp1805
Rp1806
(dp1807
g7
I9
sg8
g1436
sg64
g1437
sg66
g1438
sg68
g69
sbag1
(g2
g3
Ntp1808
Rp1809
(dp1810
g7
I3
sg8
(lp1811
g722
asg64
g1655
sg66
g724
sg68
g945
sbag1
(g2
g3
Ntp1812
Rp1813
(dp1814
g7
I1
sg8
(lp1815
g1031
ag1032
ag1033
ag1034
ag1035
ag1036
ag1037
ag1038
ag1039
ag1040
ag1041
ag1042
ag1043
ag1044
ag1045
ag1046
ag1047
ag1048
ag1049
asg64
g1693
sg66
g1051
sg68
g913
sbag1
(g2
g3
Ntp1816
Rp1817
(dp1818
g7
I2
sg8
g1436
sg64
g1437
sg66
g1438
sg68
g69
sbag1
(g2
g3
Ntp1819
Rp1820
(dp1821
g7
I0
sg8
(lp1822
g1218
ag1219
ag1220
ag1221
ag1222
ag1223
ag1224
ag1225
ag1226
ag1227
asg64
g1734
sg66
g1241
sg68
g945
sbag1
(g2
g3
Ntp1823
Rp1824
(dp1825
g7
I2
sg8
(lp1826
S'47477884'
p1827
aS'77960666'
p1828
aS'63634350'
p1829
aS'44391517'
p1830
aS'86000192'
p1831
aS'56749879'
p1832
aS'53585410'
p1833
aS'26857113'
p1834
aS'44671041'
p1835
aS'63096281'
p1836
aS'88519892'
p1837
aS'85284256'
p1838
aS'2416751'
p1839
aS'36903574'
p1840
aS'64947290'
p1841
aS'85236626'
p1842
aS'20618153'
p1843
aS'23215240'
p1844
aS'37279234'
p1845
aS'62105897'
p1846
asg64
g1406
sg66
g1407
sg68
g945
sbag1
(g2
g3
Ntp1847
Rp1848
(dp1849
g7
I0
sg8
(lp1850
g1102
ag1103
ag1104
ag1105
ag1106
ag1107
ag1108
ag1109
ag1110
ag1111
asg64
g1531
sg66
g1130
sg68
g945
sbag1
(g2
g3
Ntp1851
Rp1852
(dp1853
g7
I1
sg8
(lp1854
g30
ag31
ag32
ag33
ag34
ag35
ag36
ag37
ag38
ag39
ag40
ag41
ag42
ag43
ag44
ag45
ag46
ag47
ag48
ag49
asg64
g1427
sg66
g67
sg68
g913
sbag1
(g2
g3
Ntp1855
Rp1856
(dp1857
g7
I2
sg8
(lp1858
g226
ag227
ag228
ag229
ag230
asg64
g1412
sg66
g232
sg68
g913
sbag1
(g2
g3
Ntp1859
Rp1860
(dp1861
g7
I1
sg8
(lp1862
sg64
g1519
sg66
g1520
sg68
g945
sbag1
(g2
g3
Ntp1863
Rp1864
(dp1865
g7
I2
sg8
(lp1866
g226
ag227
ag228
ag229
ag230
asg64
g1417
sg66
g232
sg68
g945
sbag1
(g2
g3
Ntp1867
Rp1868
(dp1869
g7
I1
sg8
(lp1870
g1331
ag1332
ag1333
ag1334
ag1335
ag1336
ag1337
ag1338
ag1339
ag1340
ag1341
ag1342
asg64
g1729
sg66
g1344
sg68
g913
sbag1
(g2
g3
Ntp1871
Rp1872
(dp1873
g7
I1
sg8
(lp1874
g1228
ag1229
ag1230
ag1231
ag1232
ag1233
ag1234
ag1235
ag1236
ag1237
asg64
g1734
sg66
g1241
sg68
g945
sbag1
(g2
g3
Ntp1875
Rp1876
(dp1877
g7
I1
sg8
(lp1878
g575
ag576
ag577
ag578
ag579
ag580
ag581
ag582
ag583
ag584
ag585
ag586
ag587
ag588
ag589
ag590
ag591
ag592
ag593
ag594
asg64
g1643
sg66
g607
sg68
g913
sbag1
(g2
g3
Ntp1879
Rp1880
(dp1881
g7
I1
sg8
(lp1882
g1112
ag1113
ag1114
ag1115
ag1116
ag1117
ag1118
ag1119
ag1120
ag1121
asg64
S'10'
p1883
sg66
g1130
sg68
g913
sbag1
(g2
g3
Ntp1884
Rp1885
(dp1886
g7
I0
sg8
(lp1887
S'54395877'
p1888
aS'41585485'
p1889
aS'28943658'
p1890
aS'73893840'
p1891
aS'23257088'
p1892
aS'91196968'
p1893
aS'86988337'
p1894
aS'86807027'
p1895
aS'22826928'
p1896
aS'60661905'
p1897
aS'96054456'
p1898
aS'27582862'
p1899
aS'15249775'
p1900
aS'46701583'
p1901
aS'66433883'
p1902
aS'3678531'
p1903
aS'64393888'
p1904
aS'93566383'
p1905
aS'670011'
p1906
aS'7492204'
p1907
asg64
g1406
sg66
g1407
sg68
g945
sbag1
(g2
g3
Ntp1908
Rp1909
(dp1910
g7
I2
sg8
(lp1911
g1122
ag1123
ag1124
ag1125
ag1126
ag1127
ag1128
asg64
g1883
sg66
g1130
sg68
g913
sbag1
(g2
g3
Ntp1912
Rp1913
(dp1914
g7
I0
sg8
(lp1915
sg64
g1773
sg66
g1084
sg68
g945
sbag1
(g2
g3
Ntp1916
Rp1917
(dp1918
g7
I1
sg8
(lp1919
g30
ag31
ag32
ag33
ag34
ag35
ag36
ag37
ag38
ag39
ag40
ag41
ag42
ag43
ag44
ag45
ag46
ag47
ag48
ag49
asg64
g1432
sg66
g67
sg68
g945
sbag1
(g2
g3
Ntp1920
Rp1921
(dp1922
g7
I2
sg8
(lp1923
g595
ag596
ag597
ag598
ag599
ag600
ag601
ag602
ag603
ag604
ag605
asg64
g1643
sg66
g607
sg68
g913
sbag1
(g2
g3
Ntp1924
Rp1925
(dp1926
g7
I0
sg8
(lp1927
g1218
ag1219
ag1220
ag1221
ag1222
ag1223
ag1224
ag1225
ag1226
ag1227
asg64
g1638
sg66
g1241
sg68
g913
sbag1
(g2
g3
Ntp1928
Rp1929
(dp1930
g7
I2
sg8
(lp1931
g702
ag703
ag704
ag705
ag706
ag707
ag708
ag709
ag710
ag711
ag712
ag713
ag714
ag715
ag716
ag717
ag718
ag719
ag720
ag721
asg64
g1585
sg66
g724
sg68
g913
sbag1
(g2
g3
Ntp1932
Rp1933
(dp1934
g7
I3
sg8
(lp1935
g722
asg64
g1585
sg66
g724
sg68
g913
sbag1
(g2
g3
Ntp1936
Rp1937
(dp1938
g7
I0
sg8
(lp1939
g1102
ag1103
ag1104
ag1105
ag1106
ag1107
ag1108
ag1109
ag1110
ag1111
asg64
g1883
sg66
g1130
sg68
g913
sbag1
(g2
g3
Ntp1940
Rp1941
(dp1942
g7
I0
sg8
(lp1943
g1011
ag1012
ag1013
ag1014
ag1015
ag1016
ag1017
ag1018
ag1019
ag1020
ag1021
ag1022
ag1023
ag1024
ag1025
ag1026
ag1027
ag1028
ag1029
ag1030
asg64
g1460
sg66
g1051
sg68
g945
sbag1
(g2
g3
Ntp1944
Rp1945
(dp1946
g7
I2
sg8
(lp1947
g1238
ag1239
asg64
g1638
sg66
g1241
sg68
g913
sbag1
(g2
g3
Ntp1948
Rp1949
(dp1950
g7
I5
sg8
g1436
sg64
g1437
sg66
g1438
sg68
g69
sbag1
(g2
g3
Ntp1951
Rp1952
(dp1953
g7
I0
sg8
(lp1954
S'13284244'
p1955
aS'42778953'
p1956
aS'63939720'
p1957
aS'34691309'
p1958
aS'77831658'
p1959
aS'86807027'
p1960
aS'7957843'
p1961
aS'19214659'
p1962
aS'63573738'
p1963
aS'37419523'
p1964
aS'40911986'
p1965
aS'14941752'
p1966
aS'48308205'
p1967
aS'72895450'
p1968
aS'6939933'
p1969
asg64
g1628
sg66
g1629
sg68
g945
sbag1
(g2
g3
Ntp1970
Rp1971
(dp1972
g7
I11
sg8
g1436
sg64
g1437
sg66
g1438
sg68
g69
sba.