(lp0
ccopy_reg
_reconstructor
p1
(cbase
Lessons
p2
c__builtin__
object
p3
Ntp4
Rp5
(dp6
S'sort'
p7
I1
sS'students'
p8
(lp9
S'81200278'
p10
aS'77831658'
p11
aS'56815156'
p12
aS'22826928'
p13
aS'96054456'
p14
aS'3168419'
p15
aS'59544049'
p16
aS'33930505'
p17
aS'74131924'
p18
aS'85335143'
p19
aS'5298748'
p20
aS'28359697'
p21
aS'43680781'
p22
aS'247918'
p23
aS'54026378'
p24
aS'11068043'
p25
aS'29526540'
p26
aS'44868097'
p27
aS'58522654'
p28
aS'24613625'
p29
aS'56749879'
p30
aS'22731474'
p31
aS'30195935'
p32
aS'20883994'
p33
aS'7308727'
p34
aS'88176729'
p35
aS'73236988'
p36
aS'89985072'
p37
aS'4568018'
p38
aS'53202517'
p39
aS'21964491'
p40
aS'14591033'
p41
aS'14816774'
p42
aS'42196732'
p43
aS'6913074'
p44
aS'66120270'
p45
aS'64600457'
p46
aS'6723948'
p47
aS'79617364'
p48
aS'33877725'
p49
aS'21029457'
p50
aS'70878567'
p51
aS'96453361'
p52
aS'15051051'
p53
aS'30050930'
p54
asS'amount'
p55
S'45'
p56
sS'name'
p57
S'Bioinformatica'
p58
sS'group_name'
p59
S'hc'
p60
sbag1
(g2
g3
Ntp61
Rp62
(dp63
g7
I0
sg8
(lp64
S'13534377'
p65
aS'50184318'
p66
aS'64296965'
p67
aS'42778953'
p68
aS'82689818'
p69
aS'51741554'
p70
aS'97135019'
p71
aS'46052388'
p72
aS'1075391'
p73
aS'45556081'
p74
aS'5517869'
p75
aS'33760909'
p76
aS'64393888'
p77
aS'50143947'
p78
aS'87758823'
p79
aS'31416266'
p80
aS'15902055'
p81
aS'34773179'
p82
aS'62701040'
p83
aS'48601268'
p84
aS'86291592'
p85
aS'22699561'
p86
aS'23547619'
p87
aS'3233378'
p88
aS'1696500'
p89
aS'58522654'
p90
aS'86000192'
p91
aS'4783858'
p92
aS'72577292'
p93
aS'54310617'
p94
aS'13092455'
p95
aS'17575088'
p96
aS'1665980'
p97
aS'96104167'
p98
aS'77240949'
p99
aS'29474737'
p100
aS'7308727'
p101
aS'76123484'
p102
aS'17222374'
p103
aS'35330349'
p104
aS'68601184'
p105
aS'64228258'
p106
aS'57595888'
p107
aS'21964491'
p108
aS'42171678'
p109
aS'43027916'
p110
aS'28357474'
p111
aS'42196732'
p112
aS'77896638'
p113
aS'60312776'
p114
aS'26406342'
p115
aS'9332762'
p116
aS'29640619'
p117
aS'61443567'
p118
aS'73980360'
p119
aS'65960683'
p120
aS'37770881'
p121
aS'25106480'
p122
aS'53107172'
p123
aS'24277163'
p124
aS'75521763'
p125
asg55
S'61'
p126
sg57
S'Collectieve Intelligentie'
p127
sg59
g60
sbag1
(g2
g3
Ntp128
Rp129
(dp130
g7
I0
sg8
(lp131
S'13218321'
p132
aS'36748818'
p133
aS'50184318'
p134
aS'27916487'
p135
aS'5517869'
p136
aS'96082155'
p137
aS'68315599'
p138
aS'1181560'
p139
aS'66621166'
p140
aS'85335143'
p141
aS'49219163'
p142
aS'78243495'
p143
aS'58332004'
p144
aS'77376714'
p145
aS'33776961'
p146
aS'1766560'
p147
aS'43680781'
p148
aS'75997788'
p149
aS'27241113'
p150
aS'29526540'
p151
aS'36527838'
p152
aS'13911001'
p153
aS'99283252'
p154
aS'51650744'
p155
aS'46570285'
p156
aS'30658799'
p157
aS'3883025'
p158
aS'58699305'
p159
aS'18144425'
p160
aS'17222374'
p161
aS'4709948'
p162
aS'83415514'
p163
aS'49631542'
p164
aS'83266686'
p165
aS'78544592'
p166
aS'42171678'
p167
aS'14309255'
p168
aS'63111000'
p169
aS'41489515'
p170
aS'59111489'
p171
aS'64600457'
p172
aS'78821918'
p173
aS'89180944'
p174
aS'11741347'
p175
aS'58592894'
p176
aS'11996292'
p177
aS'47462856'
p178
aS'48198668'
p179
aS'70072978'
p180
aS'78443067'
p181
aS'15051051'
p182
aS'84449005'
p183
aS'24277163'
p184
aS'75521763'
p185
asg55
S'54'
p186
sg57
S'Moderne Databases'
p187
sg59
g60
sbag1
(g2
g3
Ntp188
Rp189
(dp190
g7
I0
sg8
(lp191
S'52311353'
p192
aS'42778953'
p193
aS'81385263'
p194
aS'54074680'
p195
aS'62872965'
p196
aS'91196968'
p197
aS'5517869'
p198
aS'90743504'
p199
aS'16011419'
p200
aS'93566383'
p201
aS'670011'
p202
aS'87758823'
p203
aS'48308205'
p204
aS'71839156'
p205
aS'36508571'
p206
aS'10149535'
p207
aS'31416266'
p208
aS'80709893'
p209
aS'38499176'
p210
aS'75005528'
p211
aS'16097870'
p212
aS'96118484'
p213
aS'34588570'
p214
aS'79937969'
p215
aS'36527838'
p216
aS'56872729'
p217
aS'42115591'
p218
aS'68409833'
p219
aS'61060652'
p220
aS'58866007'
p221
aS'3474870'
p222
aS'94955328'
p223
aS'35330349'
p224
aS'80998260'
p225
aS'55412918'
p226
aS'74182182'
p227
aS'4921119'
p228
aS'37399898'
p229
aS'94686490'
p230
aS'14591033'
p231
aS'42196732'
p232
aS'81218347'
p233
aS'77896638'
p234
aS'41578612'
p235
aS'55474917'
p236
aS'79617364'
p237
aS'34243356'
p238
aS'26172512'
p239
aS'16333449'
p240
aS'83210352'
p241
aS'32595335'
p242
aS'66570705'
p243
aS'23565001'
p244
aS'21311067'
p245
asg55
S'54'
p246
sg57
S'Lineaire Algebra'
p247
sg59
g60
sbag1
(g2
g3
Ntp248
Rp249
(dp250
g7
I0
sg8
(lp251
S'64296965'
p252
aS'78136904'
p253
aS'8522855'
p254
aS'41585485'
p255
aS'18266644'
p256
aS'5368702'
p257
aS'20239127'
p258
aS'5615125'
p259
aS'44940353'
p260
aS'14671406'
p261
aS'91196968'
p262
aS'77636749'
p263
aS'54569540'
p264
aS'96054456'
p265
aS'65003379'
p266
aS'39919665'
p267
aS'59075181'
p268
aS'59544049'
p269
aS'31633723'
p270
aS'7492204'
p271
aS'11915563'
p272
aS'58332004'
p273
aS'14398123'
p274
aS'91139627'
p275
aS'84524083'
p276
aS'94467156'
p277
aS'38499176'
p278
aS'3685034'
p279
aS'99272880'
p280
aS'10792879'
p281
aS'51542218'
p282
aS'38329455'
p283
aS'79366078'
p284
aS'78735049'
p285
aS'63634350'
p286
aS'51186803'
p287
aS'58522654'
p288
aS'42115591'
p289
aS'56749879'
p290
aS'84110134'
p291
aS'54310617'
p292
aS'10872825'
p293
aS'46570285'
p294
aS'22731474'
p295
aS'23798155'
p296
aS'20883994'
p297
aS'47605891'
p298
aS'77240949'
p299
aS'31247305'
p300
aS'36903574'
p301
aS'41527759'
p302
aS'72547110'
p303
aS'94955328'
p304
aS'58469172'
p305
aS'76924297'
p306
aS'74182182'
p307
aS'17823206'
p308
aS'39659121'
p309
aS'49631542'
p310
aS'20331158'
p311
aS'34262212'
p312
aS'14591033'
p313
aS'24875739'
p314
aS'63408522'
p315
aS'97019450'
p316
aS'27187154'
p317
aS'61518436'
p318
aS'97371272'
p319
aS'81218347'
p320
aS'79858178'
p321
aS'32705005'
p322
aS'23391676'
p323
aS'55474917'
p324
aS'82688900'
p325
aS'69086548'
p326
aS'63955238'
p327
aS'34243356'
p328
aS'37498675'
p329
aS'47462856'
p330
aS'89338938'
p331
aS'9731271'
p332
aS'56988998'
p333
aS'28957789'
p334
aS'39230359'
p335
asg55
S'84'
p336
sg57
S'Kansrekenen 2'
p337
sg59
g60
sbag1
(g2
g3
Ntp338
Rp339
(dp340
g7
I1
sg8
g64
sg55
g126
sg57
g127
sg59
g60
sbag1
(g2
g3
Ntp341
Rp342
(dp343
g7
I0
sg8
(lp344
S'22871048'
p345
aS'86807027'
p346
aS'57467488'
p347
aS'59075181'
p348
aS'14941752'
p349
aS'71839156'
p350
aS'87210640'
p351
aS'45660925'
p352
aS'66122625'
p353
aS'75997788'
p354
aS'97417002'
p355
aS'31897288'
p356
aS'1696500'
p357
aS'4783858'
p358
aS'56749879'
p359
aS'61060652'
p360
aS'36903574'
p361
aS'37110913'
p362
aS'4353500'
p363
aS'76393508'
p364
aS'48357272'
p365
aS'44901052'
p366
aS'83443653'
p367
aS'92977271'
p368
aS'19858730'
p369
aS'20331158'
p370
aS'4568018'
p371
aS'14591033'
p372
aS'42171678'
p373
aS'14816774'
p374
aS'20830477'
p375
aS'97019450'
p376
aS'81218347'
p377
aS'79879876'
p378
aS'58736785'
p379
aS'11996292'
p380
aS'14138904'
p381
aS'22323043'
p382
aS'98105190'
p383
aS'13658563'
p384
aS'53775014'
p385
aS'53107172'
p386
aS'75521763'
p387
aS'94930277'
p388
asg55
S'44'
p389
sg57
S'Heuristieken 1'
p390
sg59
g60
sbag1
(g2
g3
Ntp391
Rp392
(dp393
g7
I1
sg8
g251
sg55
g336
sg57
g337
sg59
g60
sbag1
(g2
g3
Ntp394
Rp395
(dp396
g7
I0
sg8
(lp397
S'52311353'
p398
aS'64296965'
p399
aS'22871048'
p400
aS'18266644'
p401
aS'88737765'
p402
aS'36785409'
p403
aS'77831658'
p404
aS'56815156'
p405
aS'60661905'
p406
aS'13718298'
p407
aS'78822885'
p408
aS'85335143'
p409
aS'18477924'
p410
aS'14637758'
p411
aS'58480929'
p412
aS'34900967'
p413
aS'16097870'
p414
aS'75997788'
p415
aS'51542218'
p416
aS'62613937'
p417
aS'97838175'
p418
aS'42115591'
p419
aS'72586808'
p420
aS'23798155'
p421
aS'48357272'
p422
aS'80188025'
p423
aS'73302736'
p424
aS'94955328'
p425
aS'83443653'
p426
aS'4921119'
p427
aS'82854435'
p428
aS'43027916'
p429
aS'97019450'
p430
aS'65318664'
p431
aS'87830198'
p432
aS'70193386'
p433
aS'57086672'
p434
aS'41578612'
p435
aS'48678993'
p436
aS'5595824'
p437
aS'56544130'
p438
aS'78821918'
p439
aS'34243356'
p440
aS'5085194'
p441
aS'23565001'
p442
aS'73350019'
p443
aS'72456780'
p444
aS'33672995'
p445
aS'23658570'
p446
asg55
S'49'
p447
sg57
S'Analysemethoden en -technieken'
p448
sg59
g60
sbag1
(g2
g3
Ntp449
Rp450
(dp451
g7
I1
sg8
(lp452
S'82066165'
p453
aS'13284244'
p454
aS'42778953'
p455
aS'81385263'
p456
aS'44151631'
p457
aS'40791377'
p458
aS'5368702'
p459
aS'86988337'
p460
aS'12077419'
p461
aS'7957843'
p462
aS'15911353'
p463
aS'66701209'
p464
aS'41644639'
p465
aS'51673172'
p466
aS'50143947'
p467
aS'68315599'
p468
aS'75599734'
p469
aS'79033175'
p470
aS'54772132'
p471
aS'65852230'
p472
aS'11915563'
p473
aS'48308205'
p474
aS'72895450'
p475
aS'14383795'
p476
aS'51472074'
p477
aS'71839156'
p478
aS'49683101'
p479
aS'535689'
p480
aS'2317551'
p481
aS'84524083'
p482
aS'38499176'
p483
aS'11459236'
p484
aS'1766560'
p485
aS'99272880'
p486
aS'43689934'
p487
aS'10792879'
p488
aS'88855695'
p489
aS'47260040'
p490
aS'86291592'
p491
aS'1695839'
p492
aS'14303208'
p493
aS'11068043'
p494
aS'25994016'
p495
aS'13911001'
p496
ag496
aS'88596522'
p497
aS'74361881'
p498
aS'76802764'
p499
aS'63634350'
p500
aS'58522654'
p501
aS'44391517'
p502
aS'24613625'
p503
aS'53585410'
p504
aS'64418623'
p505
aS'30658799'
p506
aS'75664412'
p507
aS'3407554'
p508
ag508
aS'1665980'
p509
aS'72665524'
p510
aS'34872117'
p511
aS'27950803'
p512
aS'23215240'
p513
aS'92665222'
p514
aS'73236988'
p515
aS'42297781'
p516
aS'79167252'
p517
aS'89985072'
p518
aS'95631564'
p519
aS'83266686'
p520
aS'4568018'
p521
aS'53202517'
p522
aS'57595888'
p523
aS'9067939'
p524
aS'14309255'
p525
aS'75759231'
p526
aS'27187154'
p527
aS'32204977'
p528
aS'8464817'
p529
aS'55103073'
p530
aS'77896638'
p531
aS'60312776'
p532
aS'94687383'
p533
aS'6723948'
p534
aS'76661016'
p535
aS'5595824'
p536
aS'80135353'
p537
aS'26406342'
p538
aS'39459642'
p539
aS'34243356'
p540
aS'88752563'
p541
aS'11741347'
p542
aS'34110913'
p543
aS'46989508'
p544
aS'65675896'
p545
aS'14138904'
p546
aS'91250534'
p547
aS'88636924'
p548
aS'5085194'
p549
aS'98105190'
p550
aS'95007221'
p551
aS'31194811'
p552
aS'5892092'
p553
aS'65960683'
p554
aS'37770881'
p555
aS'2079771'
p556
aS'72796858'
p557
aS'48503689'
p558
aS'52715680'
p559
asg55
S'109'
p560
sg57
S'Compilerbouw'
p561
sg59
g60
sbag1
(g2
g3
Ntp562
Rp563
(dp564
g7
I2
sg8
g9
sg55
g56
sg57
g58
sg59
g60
sbag1
(g2
g3
Ntp565
Rp566
(dp567
g7
I0
sg8
(lp568
S'6709529'
p569
aS'56348773'
p570
aS'51741554'
p571
aS'97135019'
p572
aS'27064249'
p573
aS'70939718'
p574
aS'93361408'
p575
aS'59220392'
p576
aS'5615125'
p577
aS'87602030'
p578
aS'86807027'
p579
aS'96054456'
p580
aS'33760909'
p581
aS'46701583'
p582
aS'3678531'
p583
aS'65978354'
p584
aS'47932106'
p585
aS'26260141'
p586
aS'27298319'
p587
aS'85335143'
p588
aS'4546613'
p589
aS'53139134'
p590
aS'6939933'
p591
aS'38179241'
p592
aS'10149535'
p593
aS'73823548'
p594
aS'15902055'
p595
aS'75585647'
p596
aS'58040377'
p597
aS'16097870'
p598
aS'10792879'
p599
aS'75997788'
p600
aS'88855695'
p601
aS'81155296'
p602
aS'87900893'
p603
aS'78735049'
p604
aS'14303208'
p605
aS'47477884'
p606
aS'44868097'
p607
aS'56872729'
p608
aS'77306636'
p609
aS'63634350'
p610
aS'86000192'
p611
aS'4783858'
p612
aS'75623387'
p613
aS'27925117'
p614
aS'53585410'
p615
aS'46570285'
p616
aS'40141996'
p617
aS'86180471'
p618
aS'79888156'
p619
aS'58253841'
p620
aS'72665524'
p621
aS'82412626'
p622
aS'38296757'
p623
aS'58699305'
p624
aS'37279234'
p625
aS'62105897'
p626
aS'22168693'
p627
aS'65408517'
p628
aS'72526473'
p629
aS'48357272'
p630
aS'80188025'
p631
aS'73302736'
p632
aS'12091019'
p633
aS'14179347'
p634
aS'58469172'
p635
aS'34173695'
p636
aS'64228258'
p637
aS'79167252'
p638
aS'55412918'
p639
aS'74182182'
p640
aS'83415514'
p641
aS'83266686'
p642
aS'94686490'
p643
aS'14591033'
p644
aS'24875739'
p645
aS'78544592'
p646
aS'14816774'
p647
aS'27187154'
p648
aS'31306819'
p649
aS'6913074'
p650
aS'55530367'
p651
aS'64600457'
p652
aS'32705005'
p653
aS'23628642'
p654
aS'6723948'
p655
aS'11593163'
p656
aS'76661016'
p657
aS'45915482'
p658
aS'75446434'
p659
aS'79617364'
p660
aS'56544130'
p661
aS'88752563'
p662
aS'21029457'
p663
aS'58592894'
p664
aS'23565001'
p665
aS'62363761'
p666
aS'78443067'
p667
aS'9731271'
p668
aS'28957789'
p669
aS'61520025'
p670
aS'19717077'
p671
aS'33672995'
p672
aS'10609762'
p673
aS'23658570'
p674
asg55
S'106'
p675
sg57
S'Calculus 2'
p676
sg59
g60
sbag1
(g2
g3
Ntp677
Rp678
(dp679
g7
I0
sg8
g9
sg55
g56
sg57
g58
sg59
g60
sbag1
(g2
g3
Ntp680
Rp681
(dp682
g7
I1
sg8
g191
sg55
g246
sg57
g247
sg59
g60
sbag1
(g2
g3
Ntp683
Rp684
(dp685
g7
I1
sg8
(lp686
S'70844780'
p687
aS'78136904'
p688
aS'22871048'
p689
aS'96554914'
p690
aS'20239127'
p691
aS'51415617'
p692
aS'36785409'
p693
aS'49922855'
p694
aS'86988337'
p695
aS'54569540'
p696
aS'22826928'
p697
aS'60661905'
p698
aS'13718298'
p699
aS'27370083'
p700
aS'20095994'
p701
aS'99453514'
p702
aS'5298748'
p703
aS'84524083'
p704
aS'92778619'
p705
aS'3685034'
p706
aS'33776961'
p707
aS'43680781'
p708
aS'77960666'
p709
aS'13092455'
p710
aS'27950803'
p711
aS'27805666'
p712
aS'37110913'
p713
aS'32044893'
p714
aS'38296757'
p715
aS'60352393'
p716
aS'4709948'
p717
aS'77392404'
p718
aS'37399898'
p719
aS'36213792'
p720
aS'82390428'
p721
aS'87830198'
p722
aS'90474003'
p723
aS'99975346'
p724
aS'70193386'
p725
aS'6913074'
p726
aS'61518436'
p727
aS'57086672'
p728
aS'41578612'
p729
aS'42406214'
p730
aS'68286356'
p731
aS'59753700'
p732
aS'13658563'
p733
aS'84449005'
p734
aS'24277163'
p735
aS'51052738'
p736
aS'52715680'
p737
asg55
S'51'
p738
sg57
S'Reflectie op de digitale cultuur'
p739
sg59
g60
sbag1
(g2
g3
Ntp740
Rp741
(dp742
g7
I0
sg8
g452
sg55
g560
sg57
g561
sg59
g60
sbag1
(g2
g3
Ntp743
Rp744
(dp745
g7
I0
sg8
(lp746
S'64296965'
p747
aS'82689818'
p748
aS'23257088'
p749
aS'5517869'
p750
aS'62736669'
p751
aS'86988337'
p752
aS'96054456'
p753
aS'670011'
p754
aS'57467488'
p755
aS'47932106'
p756
aS'3168419'
p757
aS'4529208'
p758
aS'59397895'
p759
aS'13132925'
p760
aS'58332004'
p761
aS'5526560'
p762
aS'73823548'
p763
aS'54540997'
p764
aS'75005528'
p765
aS'58083680'
p766
aS'51542218'
p767
aS'247918'
p768
aS'29526540'
p769
aS'47477884'
p770
aS'77960666'
p771
aS'40434933'
p772
aS'56872729'
p773
aS'56749879'
p774
aS'13092455'
p775
aS'40141996'
p776
aS'86180471'
p777
aS'34872117'
p778
aS'64947290'
p779
aS'25077484'
p780
aS'27123462'
p781
aS'60352393'
p782
aS'76123484'
p783
aS'43902015'
p784
aS'17222374'
p785
aS'52552718'
p786
aS'12091019'
p787
aS'91527663'
p788
aS'26207525'
p789
aS'56121590'
p790
aS'4921119'
p791
aS'49631542'
p792
aS'94686490'
p793
aS'83869542'
p794
aS'43027916'
p795
aS'14816774'
p796
aS'90474003'
p797
aS'42196732'
p798
aS'15187217'
p799
aS'51566595'
p800
aS'77896638'
p801
aS'26406342'
p802
aS'39459642'
p803
aS'78821918'
p804
aS'88752563'
p805
aS'58592894'
p806
aS'11996292'
p807
aS'46989508'
p808
aS'29640619'
p809
aS'56191333'
p810
aS'37701751'
p811
aS'17092717'
p812
aS'5085194'
p813
aS'70072978'
p814
aS'72796858'
p815
aS'24277163'
p816
aS'72456780'
p817
aS'23658570'
p818
asg55
S'72'
p819
sg57
S'Databases 2'
p820
sg59
g60
sbag1
(g2
g3
Ntp821
Rp822
(dp823
g7
I0
sg8
g686
sg55
g738
sg57
g739
sg59
g60
sbag1
(g2
g3
Ntp824
Rp825
(dp826
g7
I2
sg8
g64
sg55
g126
sg57
g127
sg59
g60
sbag1
(g2
g3
Ntp827
Rp828
(dp829
g7
I0
sg8
(lp830
S'52311353'
p831
aS'70015932'
p832
aS'82872148'
p833
aS'22871048'
p834
aS'96554914'
p835
aS'14671406'
p836
aS'13718298'
p837
aS'27582862'
p838
aS'58565406'
p839
aS'3727435'
p840
aS'50143947'
p841
aS'26260141'
p842
aS'75599734'
p843
aS'31103066'
p844
aS'59544049'
p845
aS'31633723'
p846
aS'37830626'
p847
aS'11915563'
p848
aS'78243495'
p849
aS'4546613'
p850
aS'51593625'
p851
aS'1048485'
p852
aS'43460038'
p853
aS'62356458'
p854
aS'77376714'
p855
aS'94467156'
p856
aS'80709893'
p857
aS'48601268'
p858
aS'54026378'
p859
aS'11068043'
p860
aS'3233378'
p861
aS'44868097'
p862
aS'21095566'
p863
aS'42115591'
p864
aS'68409833'
p865
aS'99283252'
p866
aS'4783858'
p867
aS'84110134'
p868
aS'44671041'
p869
aS'61060652'
p870
aS'5976174'
p871
aS'31247305'
p872
aS'27950803'
p873
aS'62105897'
p874
aS'41527759'
p875
aS'65408517'
p876
aS'88176729'
p877
aS'40343779'
p878
aS'52552718'
p879
aS'48357272'
p880
aS'73302736'
p881
aS'73236988'
p882
aS'14072826'
p883
aS'9287708'
p884
aS'89985072'
p885
aS'95631564'
p886
aS'4568018'
p887
aS'14309255'
p888
aS'65318664'
p889
aS'28357474'
p890
aS'60312776'
p891
aS'55474917'
p892
aS'37744525'
p893
aS'45915482'
p894
aS'89180944'
p895
aS'33877725'
p896
aS'83210352'
p897
aS'29640619'
p898
aS'89338938'
p899
aS'41153310'
p900
aS'22323043'
p901
aS'78443067'
p902
aS'25106480'
p903
aS'58074656'
p904
aS'52715680'
p905
asg55
S'75'
p906
sg57
S'Software engineering'
p907
sg59
g60
sbag1
(g2
g3
Ntp908
Rp909
(dp910
g7
I0
sg8
(lp911
S'22871048'
p912
aS'62872965'
p913
aS'5517869'
p914
aS'74131924'
p915
aS'27298319'
p916
aS'11915563'
p917
aS'70113753'
p918
aS'36508571'
p919
aS'62356458'
p920
aS'16097870'
p921
aS'54026378'
p922
aS'68409833'
p923
aS'37110913'
p924
aS'61611295'
p925
aS'52552718'
p926
aS'44901052'
p927
aS'19858730'
p928
aS'51566595'
p929
aS'88627897'
p930
aS'39459642'
p931
aS'34806836'
p932
aS'72796858'
p933
asg55
S'22'
p934
sg57
S'Autonomous Agents 2'
p935
sg59
g60
sbag1
(g2
g3
Ntp936
Rp937
(dp938
g7
I1
sg8
(lp939
S'40791377'
p940
aS'46701583'
p941
aS'49683101'
p942
aS'94467156'
p943
aS'3685034'
p944
aS'26857113'
p945
aS'90067329'
p946
aS'23798155'
p947
aS'5976174'
p948
aS'77240949'
p949
aS'85236626'
p950
aS'38296757'
p951
aS'33252501'
p952
aS'63111000'
p953
aS'27187154'
p954
aS'61518436'
p955
aS'67625383'
p956
aS'37744525'
p957
aS'39459642'
p958
aS'15051051'
p959
aS'56988998'
p960
aS'2079771'
p961
asg55
S'22'
p962
sg57
S'Machine Learning'
p963
sg59
g60
sbag1
(g2
g3
Ntp964
Rp965
(dp966
g7
I0
sg8
(lp967
S'82689818'
p968
aS'81385263'
p969
aS'78136904'
p970
aS'8522855'
p971
aS'41585485'
p972
aS'19540225'
p973
aS'14671406'
p974
aS'86988337'
p975
aS'12077419'
p976
aS'46701583'
p977
aS'66433883'
p978
aS'50143947'
p979
aS'57467488'
p980
aS'26260141'
p981
aS'27298319'
p982
aS'72895450'
p983
aS'77376714'
p984
aS'15902055'
p985
aS'88596522'
p986
aS'21095566'
p987
aS'53585410'
p988
aS'67817269'
p989
aS'34765676'
p990
aS'1665980'
p991
aS'5976174'
p992
aS'36903574'
p993
aS'64947290'
p994
aS'3474870'
p995
aS'41527759'
p996
aS'43902015'
p997
aS'40343779'
p998
aS'91527663'
p999
aS'64554442'
p1000
aS'21964491'
p1001
aS'51566595'
p1002
aS'51509565'
p1003
aS'23983476'
p1004
aS'3707829'
p1005
aS'58592894'
p1006
aS'96453361'
p1007
aS'44828429'
p1008
aS'23652927'
p1009
aS'52715680'
p1010
asg55
S'43'
p1011
sg57
S'Algoritmen en complexiteit'
p1012
sg59
g60
sbag1
(g2
g3
Ntp1013
Rp1014
(dp1015
g7
I0
sg8
(lp1016
g747
ag748
ag749
ag750
ag751
ag752
ag753
ag754
ag755
ag756
ag757
ag758
ag759
ag760
ag761
ag762
ag763
ag764
ag765
ag766
ag767
ag768
ag769
ag770
ag771
ag772
ag773
ag774
ag775
ag776
ag777
ag778
ag779
ag780
ag781
ag782
ag783
ag784
ag785
ag786
asg55
S'40'
p1017
sg57
g820
sg59
S'wc'
p1018
sbag1
(g2
g3
Ntp1019
Rp1020
(dp1021
g7
I1
sg8
(lp1022
sg55
S'21'
p1023
sg57
S'Informatie- en organisatieontwerp'
p1024
sg59
g60
sbag1
(g2
g3
Ntp1025
Rp1026
(dp1027
g7
I1
sg8
(lp1028
S'52311353'
p1029
aS'93023961'
p1030
aS'81200278'
p1031
aS'91196968'
p1032
aS'50143947'
p1033
aS'74131924'
p1034
aS'45414528'
p1035
aS'19337738'
p1036
aS'99453514'
p1037
aS'87314964'
p1038
aS'66122625'
p1039
aS'87900893'
p1040
aS'13116738'
p1041
aS'37110913'
p1042
aS'17823206'
p1043
aS'21964491'
p1044
aS'81022997'
p1045
aS'51566595'
p1046
aS'13996448'
p1047
aS'37744525'
p1048
aS'25330192'
p1049
aS'68360259'
p1050
aS'59753700'
p1051
aS'70878567'
p1052
aS'97136582'
p1053
aS'22323043'
p1054
aS'98780382'
p1055
asg55
S'27'
p1056
sg57
S'Data Mining'
p1057
sg59
g60
sbag1
(g2
g3
Ntp1058
Rp1059
(dp1060
g7
I0
sg8
g939
sg55
g962
sg57
g963
sg59
g60
sbag1
(g2
g3
Ntp1061
Rp1062
(dp1063
g7
I1
sg8
(lp1064
S'70015932'
p1065
aS'82689818'
p1066
aS'45556081'
p1067
aS'29718115'
p1068
aS'49683101'
p1069
aS'43460038'
p1070
aS'10149535'
p1071
aS'13798030'
p1072
aS'40434933'
p1073
aS'72683344'
p1074
aS'27925117'
p1075
aS'72577292'
p1076
aS'23798155'
p1077
aS'58866007'
p1078
aS'34872117'
p1079
aS'83266686'
p1080
aS'20331158'
p1081
aS'28618400'
p1082
aS'89180944'
p1083
aS'14138904'
p1084
aS'59289233'
p1085
asg55
S'21'
p1086
sg57
S'Architectuur en computerorganisatie'
p1087
sg59
g60
sbag1
(g2
g3
Ntp1088
Rp1089
(dp1090
g7
I1
sg8
(lp1091
g787
ag788
ag789
ag790
ag791
ag792
ag793
ag794
ag795
ag796
ag797
ag798
ag799
ag800
ag801
ag802
ag803
ag804
ag805
ag806
ag807
ag808
ag809
ag810
ag811
ag812
ag813
ag814
ag815
ag816
ag817
ag818
asg55
g1017
sg57
g820
sg59
g1018
sbag1
(g2
g3
Ntp1092
Rp1093
(dp1094
g7
I0
sg8
g1022
sg55
g1023
sg57
g1024
sg59
g60
sbag1
(g2
g3
Ntp1095
Rp1096
(dp1097
g7
I0
sg8
(lp1098
S'76903244'
p1099
aS'53512831'
p1100
aS'27064249'
p1101
aS'69459473'
p1102
aS'5615125'
p1103
aS'24891081'
p1104
aS'67073567'
p1105
aS'78243495'
p1106
aS'72895450'
p1107
aS'49908313'
p1108
aS'43460038'
p1109
aS'41790793'
p1110
aS'6249823'
p1111
aS'14303208'
p1112
aS'40434933'
p1113
aS'72577292'
p1114
aS'1137946'
p1115
aS'2416751'
p1116
aS'20618153'
p1117
aS'3474870'
p1118
aS'76123484'
p1119
aS'43902015'
p1120
aS'64228258'
p1121
aS'77392404'
p1122
aS'53202517'
p1123
aS'66034145'
p1124
aS'57086672'
p1125
aS'22288615'
p1126
aS'76648468'
p1127
aS'89180944'
p1128
aS'33877725'
p1129
aS'16333449'
p1130
aS'10698627'
p1131
aS'61443567'
p1132
aS'17092717'
p1133
aS'28358060'
p1134
aS'94930277'
p1135
aS'39230359'
p1136
aS'14847953'
p1137
asg55
S'39'
p1138
sg57
S'Webprogrammeren en databases'
p1139
sg59
g60
sbag1
(g2
g3
Ntp1140
Rp1141
(dp1142
g7
I1
sg8
g1098
sg55
g1138
sg57
g1139
sg59
g60
sbag1
(g2
g3
Ntp1143
Rp1144
(dp1145
g7
I1
sg8
(lp1146
g993
ag994
ag995
ag996
ag997
ag998
ag999
ag1000
ag1001
ag1002
ag1003
ag1004
ag1005
ag1006
ag1007
ag1008
ag1009
ag1010
asg55
S'25'
p1147
sg57
g1012
sg59
g1018
sbag1
(g2
g3
Ntp1148
Rp1149
(dp1150
g7
I1
sg8
(lp1151
S'36785409'
p1152
aS'77636749'
p1153
aS'12077419'
p1154
aS'58565406'
p1155
aS'76487754'
p1156
aS'68315599'
p1157
aS'85335143'
p1158
aS'93041523'
p1159
aS'48308205'
p1160
aS'7106649'
p1161
aS'77264363'
p1162
aS'14383795'
p1163
aS'10149535'
p1164
aS'21192048'
p1165
aS'92496780'
p1166
aS'6249823'
p1167
aS'43680781'
p1168
aS'23547619'
p1169
aS'40434933'
p1170
aS'70336464'
p1171
aS'4697362'
p1172
aS'75664412'
p1173
aS'37110913'
p1174
aS'44901052'
p1175
aS'47982619'
p1176
aS'14309255'
p1177
aS'97371272'
p1178
aS'32204977'
p1179
aS'41578612'
p1180
aS'69086548'
p1181
aS'26406342'
p1182
aS'9332762'
p1183
aS'11996292'
p1184
aS'89338938'
p1185
aS'22323043'
p1186
aS'12430748'
p1187
aS'31194811'
p1188
aS'75521763'
p1189
asg55
S'38'
p1190
sg57
S'Technology for games'
p1191
sg59
g60
sbag1
(g2
g3
Ntp1192
Rp1193
(dp1194
g7
I0
sg8
(lp1195
g968
ag969
ag970
ag971
ag972
ag973
ag974
ag975
ag976
ag977
ag978
ag979
ag980
ag981
ag982
ag983
ag984
ag985
ag986
ag987
ag988
ag989
ag990
ag991
ag992
asg55
g1147
sg57
g1012
sg59
g1018
sbag1
(g2
g3
Ntp1196
Rp1197
(dp1198
g7
I0
sg8
(lp1199
g831
ag832
ag833
ag834
ag835
ag836
ag837
ag838
ag839
ag840
ag841
ag842
ag843
ag844
ag845
ag846
ag847
ag848
ag849
ag850
ag851
ag852
ag853
ag854
ag855
ag856
ag857
ag858
ag859
ag860
ag861
ag862
ag863
ag864
ag865
ag866
ag867
ag868
ag869
ag870
asg55
S'40'
p1200
sg57
g907
sg59
S'pr'
p1201
sbag1
(g2
g3
Ntp1202
Rp1203
(dp1204
g7
I1
sg8
(lp1205
g493
ag494
ag495
ag496
ag496
ag497
ag498
ag499
ag500
ag501
ag502
ag503
ag504
ag505
ag506
ag507
ag508
ag508
ag509
ag510
ag511
ag512
ag513
ag514
ag515
ag516
ag517
ag518
ag519
ag520
ag521
ag522
ag523
ag524
ag525
ag526
ag527
ag528
ag529
ag530
asg55
S'40'
p1206
sg57
g561
sg59
g1018
sbag1
(g2
g3
Ntp1207
Rp1208
(dp1209
g7
I1
sg8
(lp1210
g493
ag494
ag495
ag496
ag496
ag497
ag498
ag499
ag500
ag501
ag502
ag503
ag504
ag505
ag506
ag507
ag508
ag508
ag509
ag510
ag511
ag512
ag513
ag514
ag515
ag516
ag517
ag518
ag519
ag520
ag521
ag522
ag523
ag524
ag525
ag526
ag527
ag528
ag529
ag530
asg55
S'40'
p1211
sg57
g561
sg59
g1201
sbag1
(g2
g3
Ntp1212
Rp1213
(dp1214
g7
I0
sg8
g1028
sg55
g1056
sg57
g1057
sg59
g60
sbag1
(g2
g3
Ntp1215
Rp1216
(dp1217
g7
I0
sg8
(lp1218
g345
ag346
ag347
ag348
ag349
ag350
ag351
ag352
ag353
ag354
ag355
ag356
ag357
ag358
ag359
ag360
ag361
ag362
ag363
ag364
ag365
ag366
ag367
ag368
ag369
asg55
S'25'
p1219
sg57
g390
sg59
g1018
sbag1
(g2
g3
Ntp1220
Rp1221
(dp1222
g7
I0
sg8
(lp1223
g453
ag454
ag455
ag456
ag457
ag458
ag459
ag460
ag461
ag462
ag463
ag464
ag465
ag466
ag467
ag468
ag469
ag470
ag471
ag472
ag473
ag474
ag475
ag476
ag477
ag478
ag479
ag480
ag481
ag482
ag483
ag484
ag485
ag486
ag487
ag488
ag489
ag490
ag491
ag492
asg55
g1206
sg57
g561
sg59
g1018
sbag1
(g2
g3
Ntp1224
Rp1225
(dp1226
g7
I0
sg8
(lp1227
g569
ag570
ag571
ag572
ag573
ag574
ag575
ag576
ag577
ag578
ag579
ag580
ag581
ag582
ag583
ag584
ag585
ag586
ag587
ag588
ag589
ag590
ag591
ag592
ag593
ag594
ag595
ag596
ag597
ag598
ag599
ag600
ag601
ag602
ag603
ag604
ag605
ag606
ag607
ag608
asg55
S'40'
p1228
sg57
g676
sg59
g1018
sbag1
(g2
g3
Ntp1229
Rp1230
(dp1231
g7
I1
sg8
(lp1232
g871
ag872
ag873
ag874
ag875
ag876
ag877
ag878
ag879
ag880
ag881
ag882
ag883
ag884
ag885
ag886
ag887
ag888
ag889
ag890
ag891
ag892
ag893
ag894
ag895
ag896
ag897
ag898
ag899
ag900
ag901
ag902
ag903
ag904
ag905
asg55
g1200
sg57
g907
sg59
g1201
sbag1
(g2
g3
Ntp1233
Rp1234
(dp1235
g7
I0
sg8
g1151
sg55
g1190
sg57
g1191
sg59
g60
sbag1
(g2
g3
Ntp1236
Rp1237
(dp1238
g7
I1
sg8
(lp1239
g993
ag994
ag995
ag996
ag997
ag998
ag999
ag1000
ag1001
ag1002
ag1003
ag1004
ag1005
ag1006
ag1007
ag1008
ag1009
ag1010
asg55
S'25'
p1240
sg57
g1012
sg59
g1201
sbag1
(g2
g3
Ntp1241
Rp1242
(dp1243
g7
I0
sg8
(lp1244
S'81385263'
p1245
aS'81200278'
p1246
aS'5368702'
p1247
aS'19214659'
p1248
aS'93566383'
p1249
aS'4546613'
p1250
aS'38179241'
p1251
aS'69634191'
p1252
aS'81155296'
p1253
aS'21677389'
p1254
aS'23547619'
p1255
aS'34765676'
p1256
aS'76924297'
p1257
aS'37399898'
p1258
aS'66034145'
p1259
aS'28055464'
p1260
aS'76661016'
p1261
aS'3707829'
p1262
aS'2550487'
p1263
aS'20374340'
p1264
aS'37701751'
p1265
aS'65675896'
p1266
aS'64768422'
p1267
aS'44828429'
p1268
aS'14847953'
p1269
asg55
S'25'
p1270
sg57
S'Interactie-ontwerp'
p1271
sg59
g60
sbag1
(g2
g3
Ntp1272
Rp1273
(dp1274
g7
I1
sg8
(lp1275
g871
ag872
ag873
ag874
ag875
ag876
ag877
ag878
ag879
ag880
ag881
ag882
ag883
ag884
ag885
ag886
ag887
ag888
ag889
ag890
ag891
ag892
ag893
ag894
ag895
ag896
ag897
ag898
ag899
ag900
ag901
ag902
ag903
ag904
ag905
asg55
S'40'
p1276
sg57
g907
sg59
g1018
sbag1
(g2
g3
Ntp1277
Rp1278
(dp1279
g7
I2
sg8
(lp1280
g531
ag532
ag533
ag534
ag535
ag536
ag537
ag538
ag539
ag540
ag541
ag542
ag543
ag544
ag545
ag546
ag547
ag548
ag549
ag550
ag551
ag552
ag553
ag554
ag555
ag556
ag557
ag558
ag559
asg55
g1206
sg57
g561
sg59
g1018
sbag1
(g2
g3
Ntp1281
Rp1282
(dp1283
g7
I1
sg8
g1244
sg55
g1270
sg57
g1271
sg59
g60
sbag1
(g2
g3
Ntp1284
Rp1285
(dp1286
g7
I0
sg8
(lp1287
g831
ag832
ag833
ag834
ag835
ag836
ag837
ag838
ag839
ag840
ag841
ag842
ag843
ag844
ag845
ag846
ag847
ag848
ag849
ag850
ag851
ag852
ag853
ag854
ag855
ag856
ag857
ag858
ag859
ag860
ag861
ag862
ag863
ag864
ag865
ag866
ag867
ag868
ag869
ag870
asg55
g1276
sg57
g907
sg59
g1018
sbag1
(g2
g3
Ntp1288
Rp1289
(dp1290
g7
I0
sg8
g1064
sg55
g1086
sg57
g1087
sg59
g60
sbag1
(g2
g3
Ntp1291
Rp1292
(dp1293
g7
I0
sg8
(lp1294
S'1886996'
p1295
aS'81200278'
p1296
aS'87602030'
p1297
aS'52304977'
p1298
aS'33760909'
p1299
aS'15249775'
p1300
aS'82968410'
p1301
aS'670011'
p1302
aS'78243495'
p1303
aS'7106649'
p1304
aS'84524083'
p1305
aS'58040377'
p1306
aS'16097870'
p1307
aS'31897288'
p1308
aS'63634350'
p1309
aS'27925117'
p1310
aS'22731474'
p1311
aS'34765676'
p1312
aS'5976174'
p1313
aS'85236626'
p1314
aS'72652638'
p1315
aS'83869542'
p1316
aS'43027916'
p1317
aS'81022997'
p1318
aS'99975346'
p1319
aS'57086672'
p1320
aS'51566595'
p1321
aS'48678993'
p1322
aS'5739011'
p1323
aS'58736785'
p1324
aS'35315956'
p1325
aS'61443567'
p1326
asg55
S'32'
p1327
sg57
S'Heuristieken 2'
p1328
sg59
g60
sbag1
(g2
g3
Ntp1329
Rp1330
(dp1331
g7
I1
sg8
g911
sg55
g934
sg57
g935
sg59
g60
sbag1
(g2
g3
Ntp1332
Rp1333
(dp1334
g7
I2
sg8
(lp1335
g649
ag650
ag651
ag652
ag653
ag654
ag655
ag656
ag657
ag658
ag659
ag660
ag661
ag662
ag663
ag664
ag665
ag666
ag667
ag668
ag669
ag670
ag671
ag672
ag673
ag674
asg55
g1228
sg57
g676
sg59
g1018
sbag1
(g2
g3
Ntp1336
Rp1337
(dp1338
g7
I1
sg8
(lp1339
g370
ag371
ag372
ag373
ag374
ag375
ag376
ag377
ag378
ag379
ag380
ag381
ag382
ag383
ag384
ag385
ag386
ag387
ag388
asg55
g1219
sg57
g390
sg59
g1018
sbag1
(g2
g3
Ntp1340
Rp1341
(dp1342
g7
I0
sg8
(lp1343
g968
ag969
ag970
ag971
ag972
ag973
ag974
ag975
ag976
ag977
ag978
ag979
ag980
ag981
ag982
ag983
ag984
ag985
ag986
ag987
ag988
ag989
ag990
ag991
ag992
asg55
g1240
sg57
g1012
sg59
g1201
sbag1
(g2
g3
Ntp1344
Rp1345
(dp1346
g7
I0
sg8
(lp1347
g453
ag454
ag455
ag456
ag457
ag458
ag459
ag460
ag461
ag462
ag463
ag464
ag465
ag466
ag467
ag468
ag469
ag470
ag471
ag472
ag473
ag474
ag475
ag476
ag477
ag478
ag479
ag480
ag481
ag482
ag483
ag484
ag485
ag486
ag487
ag488
ag489
ag490
ag491
ag492
asg55
g1211
sg57
g561
sg59
g1201
sbag1
(g2
g3
Ntp1348
Rp1349
(dp1350
g7
I1
sg8
(lp1351
g609
ag610
ag611
ag612
ag613
ag614
ag615
ag616
ag617
ag618
ag619
ag620
ag621
ag622
ag623
ag624
ag625
ag626
ag627
ag628
ag629
ag630
ag631
ag632
ag633
ag634
ag635
ag636
ag637
ag638
ag639
ag640
ag641
ag642
ag643
ag644
ag645
ag646
ag647
ag648
asg55
g1228
sg57
g676
sg59
g1018
sbag1
(g2
g3
Ntp1352
Rp1353
(dp1354
g7
I2
sg8
(lp1355
g531
ag532
ag533
ag534
ag535
ag536
ag537
ag538
ag539
ag540
ag541
ag542
ag543
ag544
ag545
ag546
ag547
ag548
ag549
ag550
ag551
ag552
ag553
ag554
ag555
ag556
ag557
ag558
ag559
asg55
g1211
sg57
g561
sg59
g1201
sbag1
(g2
g3
Ntp1356
Rp1357
(dp1358
g7
I0
sg8
(lp1359
S'1886996'
p1360
aS'70844780'
p1361
aS'78136904'
p1362
aS'27064249'
p1363
aS'86807027'
p1364
aS'3168419'
p1365
aS'75997788'
p1366
aS'23547619'
p1367
aS'62613937'
p1368
aS'47477884'
p1369
aS'72683344'
p1370
aS'72577292'
p1371
aS'20883994'
p1372
aS'72665524'
p1373
aS'60352393'
p1374
aS'92665222'
p1375
aS'40633534'
p1376
aS'28618400'
p1377
aS'39429093'
p1378
aS'14847953'
p1379
asg55
S'20'
p1380
sg57
S'Advanced Heuristics'
p1381
sg59
g60
sbag1
(g2
g3
Ntp1382
Rp1383
(dp1384
g7
I9
sg8
(lp1385
sg55
S'0'
p1386
sg57
S'empty'
p1387
sg59
g60
sbag1
(g2
g3
Ntp1388
Rp1389
(dp1390
g7
I0
sg8
g1385
sg55
g1386
sg57
g1387
sg59
g60
sbag1
(g2
g3
Ntp1391
Rp1392
(dp1393
g7
I1
sg8
(lp1394
g707
ag708
ag709
ag710
ag711
ag712
ag713
ag714
ag715
ag716
ag717
ag718
ag719
ag720
ag721
ag722
ag723
ag724
ag725
ag726
asg55
S'20'
p1395
sg57
g739
sg59
g1018
sbag1
(g2
g3
Ntp1396
Rp1397
(dp1398
g7
I0
sg8
(lp1399
g1029
ag1030
ag1031
ag1032
ag1033
ag1034
ag1035
ag1036
ag1037
ag1038
asg55
S'10'
p1400
sg57
g1057
sg59
g1018
sbag1
(g2
g3
Ntp1401
Rp1402
(dp1403
g7
I2
sg8
(lp1404
g172
ag173
ag174
ag175
ag176
ag177
ag178
ag179
ag180
ag181
ag182
ag183
ag184
ag185
asg55
S'20'
p1405
sg57
g187
sg59
g1018
sbag1
(g2
g3
Ntp1406
Rp1407
(dp1408
g7
I1
sg8
(lp1409
S'62356458'
p1410
aS'73823548'
p1411
aS'75005528'
p1412
aS'3685034'
p1413
aS'1766560'
p1414
aS'86291592'
p1415
aS'11068043'
p1416
aS'84110134'
p1417
aS'13092455'
p1418
aS'22731474'
p1419
aS'32044893'
p1420
aS'7308727'
p1421
aS'19662602'
p1422
aS'73236988'
p1423
aS'74182182'
p1424
asg55
S'15'
p1425
sg57
S'Project Numerical Recipes'
p1426
sg59
g1201
sbag1
(g2
g3
Ntp1427
Rp1428
(dp1429
g7
I1
sg8
(lp1430
sg55
S'15'
p1431
sg57
S'Zoeken, sturen en bewegen'
p1432
sg59
g1201
sbag1
(g2
g3
Ntp1433
Rp1434
(dp1435
g7
I1
sg8
(lp1436
g30
ag31
ag32
ag33
ag34
ag35
ag36
ag37
ag38
ag39
ag40
ag41
ag42
ag43
ag44
ag45
ag46
ag47
ag48
ag49
asg55
S'20'
p1437
sg57
g58
sg59
g1018
sbag1
(g2
g3
Ntp1438
Rp1439
(dp1440
g7
I0
sg8
(lp1441
sg55
S'15'
p1442
sg57
g1024
sg59
g1018
sbag1
(g2
g3
Ntp1443
Rp1444
(dp1445
g7
I1
sg8
(lp1446
g1039
ag1040
ag1041
ag1042
ag1043
ag1044
ag1045
ag1046
ag1047
ag1048
asg55
S'10'
p1447
sg57
g1057
sg59
g1201
sbag1
(g2
g3
Ntp1448
Rp1449
(dp1450
g7
I1
sg8
g1385
sg55
g1386
sg57
g1387
sg59
g60
sbag1
(g2
g3
Ntp1451
Rp1452
(dp1453
g7
I0
sg8
(lp1454
g10
ag11
ag12
ag13
ag14
ag15
ag16
ag17
ag18
ag19
ag20
ag21
ag22
ag23
ag24
ag25
ag26
ag27
ag28
ag29
asg55
g1437
sg57
g58
sg59
g1018
sbag1
(g2
g3
Ntp1455
Rp1456
(dp1457
g7
I0
sg8
(lp1458
g912
ag913
ag914
ag915
ag916
ag917
ag918
ag919
ag920
ag921
asg55
S'10'
p1459
sg57
g935
sg59
g1018
sbag1
(g2
g3
Ntp1460
Rp1461
(dp1462
g7
I2
sg8
(lp1463
g105
ag106
ag107
ag108
ag109
ag110
ag111
ag112
ag113
ag114
ag115
ag116
ag117
ag118
ag119
ag120
ag121
ag122
ag123
ag124
asg55
S'20'
p1464
sg57
g127
sg59
g1018
sbag1
(g2
g3
Ntp1465
Rp1466
(dp1467
g7
I0
sg8
(lp1468
g132
ag133
ag134
ag135
ag136
ag137
ag138
ag139
ag140
ag141
ag142
ag143
ag144
ag145
ag146
ag147
ag148
ag149
ag150
ag151
asg55
S'20'
p1469
sg57
g187
sg59
g1201
sbag1
(g2
g3
Ntp1470
Rp1471
(dp1472
g7
I1
sg8
(lp1473
g1119
ag1120
ag1121
ag1122
ag1123
ag1124
ag1125
ag1126
ag1127
ag1128
ag1129
ag1130
ag1131
ag1132
ag1133
ag1134
ag1135
ag1136
ag1137
asg55
S'20'
p1474
sg57
g1139
sg59
g1201
sbag1
(g2
g3
Ntp1475
Rp1476
(dp1477
g7
I0
sg8
(lp1478
g132
ag133
ag134
ag135
ag136
ag137
ag138
ag139
ag140
ag141
ag142
ag143
ag144
ag145
ag146
ag147
ag148
ag149
ag150
ag151
asg55
g1405
sg57
g187
sg59
g1018
sbag1
(g2
g3
Ntp1479
Rp1480
(dp1481
g7
I7
sg8
g1385
sg55
g1386
sg57
g1387
sg59
g60
sbag1
(g2
g3
Ntp1482
Rp1483
(dp1484
g7
I2
sg8
(lp1485
g50
ag51
ag52
ag53
ag54
asg55
S'20'
p1486
sg57
g58
sg59
g1201
sbag1
(g2
g3
Ntp1487
Rp1488
(dp1489
g7
I0
sg8
(lp1490
g1360
ag1361
ag1362
ag1363
ag1364
ag1365
ag1366
ag1367
ag1368
ag1369
asg55
S'10'
p1491
sg57
g1381
sg59
g1201
sbag1
(g2
g3
Ntp1492
Rp1493
(dp1494
g7
I0
sg8
(lp1495
g687
ag688
ag689
ag690
ag691
ag692
ag693
ag694
ag695
ag696
ag697
ag698
ag699
ag700
ag701
ag702
ag703
ag704
ag705
ag706
asg55
g1395
sg57
g739
sg59
g1018
sbag1
(g2
g3
Ntp1496
Rp1497
(dp1498
g7
I3
sg8
(lp1499
g125
asg55
S'20'
p1500
sg57
g127
sg59
g1201
sbag1
(g2
g3
Ntp1501
Rp1502
(dp1503
g7
I1
sg8
(lp1504
g30
ag31
ag32
ag33
ag34
ag35
ag36
ag37
ag38
ag39
ag40
ag41
ag42
ag43
ag44
ag45
ag46
ag47
ag48
ag49
asg55
g1486
sg57
g58
sg59
g1201
sbag1
(g2
g3
Ntp1505
Rp1506
(dp1507
g7
I1
sg8
(lp1508
S'1048485'
p1509
aS'535689'
p1510
aS'38499176'
p1511
aS'59887191'
p1512
aS'86291592'
p1513
aS'21677389'
p1514
aS'1696500'
p1515
aS'16912993'
p1516
aS'72586808'
p1517
aS'30195935'
p1518
aS'75664412'
p1519
aS'85284256'
p1520
aS'31247305'
p1521
aS'72665524'
p1522
aS'36903574'
p1523
aS'123355'
p1524
aS'3883025'
p1525
aS'4353500'
p1526
aS'25557516'
p1527
aS'7308727'
p1528
asg55
S'20'
p1529
sg57
S'Netwerken en systeembeveiliging'
p1530
sg59
g1201
sbag1
(g2
g3
Ntp1531
Rp1532
(dp1533
g7
I1
sg8
(lp1534
g1172
ag1173
ag1174
ag1175
ag1176
ag1177
ag1178
ag1179
ag1180
ag1181
ag1182
ag1183
ag1184
ag1185
ag1186
ag1187
ag1188
ag1189
asg55
S'20'
p1535
sg57
g1191
sg59
g1018
sbag1
(g2
g3
Ntp1536
Rp1537
(dp1538
g7
I0
sg8
(lp1539
g912
ag913
ag914
ag915
ag916
ag917
ag918
ag919
ag920
ag921
asg55
S'10'
p1540
sg57
g935
sg59
g1201
sbag1
(g2
g3
Ntp1541
Rp1542
(dp1543
g7
I0
sg8
(lp1544
g1099
ag1100
ag1101
ag1102
ag1103
ag1104
ag1105
ag1106
ag1107
ag1108
ag1109
ag1110
ag1111
ag1112
ag1113
ag1114
ag1115
ag1116
ag1117
ag1118
asg55
g1474
sg57
g1139
sg59
g1201
sbag1
(g2
g3
Ntp1545
Rp1546
(dp1547
g7
I1
sg8
(lp1548
sg55
g1442
sg57
g1024
sg59
g1018
sbag1
(g2
g3
Ntp1549
Rp1550
(dp1551
g7
I1
sg8
(lp1552
g1370
ag1371
ag1372
ag1373
ag1374
ag1375
ag1376
ag1377
ag1378
ag1379
asg55
g1491
sg57
g1381
sg59
g1201
sbag1
(g2
g3
Ntp1553
Rp1554
(dp1555
g7
I4
sg8
g1385
sg55
g1386
sg57
g1387
sg59
g60
sbag1
(g2
g3
Ntp1556
Rp1557
(dp1558
g7
I2
sg8
(lp1559
g727
ag728
ag729
ag730
ag731
ag732
ag733
ag734
ag735
ag736
ag737
asg55
g1395
sg57
g739
sg59
g1018
sbag1
(g2
g3
Ntp1560
Rp1561
(dp1562
g7
I8
sg8
g1385
sg55
g1386
sg57
g1387
sg59
g60
sbag1
(g2
g3
Ntp1563
Rp1564
(dp1565
g7
I2
sg8
(lp1566
sg55
g1431
sg57
g1432
sg59
g1201
sbag1
(g2
g3
Ntp1567
Rp1568
(dp1569
g7
I0
sg8
(lp1570
g65
ag66
ag67
ag68
ag69
ag70
ag71
ag72
ag73
ag74
ag75
ag76
ag77
ag78
ag79
ag80
ag81
ag82
ag83
ag84
asg55
g1464
sg57
g127
sg59
g1018
sbag1
(g2
g3
Ntp1571
Rp1572
(dp1573
g7
I0
sg8
(lp1574
g65
ag66
ag67
ag68
ag69
ag70
ag71
ag72
ag73
ag74
ag75
ag76
ag77
ag78
ag79
ag80
ag81
ag82
ag83
ag84
asg55
g1500
sg57
g127
sg59
g1201
sbag1
(g2
g3
Ntp1575
Rp1576
(dp1577
g7
I0
sg8
(lp1578
S'13284244'
p1579
aS'42778953'
p1580
aS'63939720'
p1581
aS'34691309'
p1582
aS'77831658'
p1583
aS'86807027'
p1584
aS'7957843'
p1585
aS'19214659'
p1586
aS'63573738'
p1587
aS'37419523'
p1588
aS'40911986'
p1589
aS'14941752'
p1590
aS'48308205'
p1591
aS'72895450'
p1592
aS'6939933'
p1593
asg55
g1425
sg57
g1426
sg59
g1201
sbag1
(g2
g3
Ntp1594
Rp1595
(dp1596
g7
I3
sg8
(lp1597
S'97136582'
p1598
aS'62363761'
p1599
aS'9731271'
p1600
aS'72456780'
p1601
asg55
g1529
sg57
g1530
sg59
g1201
sbag1
(g2
g3
Ntp1602
Rp1603
(dp1604
g7
I5
sg8
(lp1605
S'94955328'
p1606
aS'90296821'
p1607
aS'4709948'
p1608
aS'58469172'
p1609
aS'68601184'
p1610
aS'92977271'
p1611
aS'79167252'
p1612
aS'17823206'
p1613
aS'39905995'
p1614
aS'4921119'
p1615
aS'83415514'
p1616
aS'47982619'
p1617
aS'88263855'
p1618
aS'37399898'
p1619
aS'64053722'
p1620
aS'34262212'
p1621
aS'21964491'
p1622
aS'20830477'
p1623
aS'97019450'
p1624
aS'73196865'
p1625
aS'63111000'
p1626
aS'27187154'
p1627
aS'6913074'
p1628
aS'8464817'
p1629
aS'51791169'
p1630
aS'77896638'
p1631
aS'23983476'
p1632
aS'64600457'
p1633
aS'22288615'
p1634
aS'23391676'
p1635
aS'94687383'
p1636
aS'6723948'
p1637
aS'55474917'
p1638
aS'13996448'
p1639
aS'37744525'
p1640
aS'80135353'
p1641
aS'39459642'
p1642
aS'2550487'
p1643
aS'79879876'
p1644
aS'7386961'
p1645
aS'9332762'
p1646
aS'10698627'
p1647
aS'29640619'
p1648
aS'41153310'
p1649
aS'61443567'
p1650
aS'70072978'
p1651
aS'9731271'
p1652
aS'12782624'
p1653
aS'48503689'
p1654
aS'23658570'
p1655
asg55
S'20'
p1656
sg57
S'Programmeren in Java 2'
p1657
sg59
g1201
sbag1
(g2
g3
Ntp1658
Rp1659
(dp1660
g7
I10
sg8
g1385
sg55
g1386
sg57
g1387
sg59
g60
sbag1
(g2
g3
Ntp1661
Rp1662
(dp1663
g7
I2
sg8
(lp1664
g105
ag106
ag107
ag108
ag109
ag110
ag111
ag112
ag113
ag114
ag115
ag116
ag117
ag118
ag119
ag120
ag121
ag122
ag123
ag124
asg55
g1500
sg57
g127
sg59
g1201
sbag1
(g2
g3
Ntp1665
Rp1666
(dp1667
g7
I1
sg8
(lp1668
g1315
ag1316
ag1317
ag1318
ag1319
ag1320
ag1321
ag1322
ag1323
ag1324
ag1325
ag1326
asg55
S'20'
p1669
sg57
g1328
sg59
g1018
sbag1
(g2
g3
Ntp1670
Rp1671
(dp1672
g7
I3
sg8
(lp1673
g125
asg55
g1464
sg57
g127
sg59
g1018
sbag1
(g2
g3
Ntp1674
Rp1675
(dp1676
g7
I1
sg8
(lp1677
g922
ag923
ag924
ag925
ag926
ag927
ag928
ag929
ag930
ag931
asg55
g1540
sg57
g935
sg59
g1201
sbag1
(g2
g3
Ntp1678
Rp1679
(dp1680
g7
I0
sg8
(lp1681
g10
ag11
ag12
ag13
ag14
ag15
ag16
ag17
ag18
ag19
ag20
ag21
ag22
ag23
ag24
ag25
ag26
ag27
ag28
ag29
asg55
g1486
sg57
g58
sg59
g1201
sbag1
(g2
g3
Ntp1682
Rp1683
(dp1684
g7
I4
sg8
g1605
sg55
g1656
sg57
g1657
sg59
g1201
sbag1
(g2
g3
Ntp1685
Rp1686
(dp1687
g7
I0
sg8
(lp1688
g1152
ag1153
ag1154
ag1155
ag1156
ag1157
ag1158
ag1159
ag1160
ag1161
ag1162
ag1163
ag1164
ag1165
ag1166
ag1167
ag1168
ag1169
ag1170
ag1171
asg55
g1535
sg57
g1191
sg59
g1018
sbag1
(g2
g3
Ntp1689
Rp1690
(dp1691
g7
I3
sg8
g1385
sg55
g1386
sg57
g1387
sg59
g60
sbag1
(g2
g3
Ntp1692
Rp1693
(dp1694
g7
I0
sg8
(lp1695
S'54395877'
p1696
aS'41585485'
p1697
aS'28943658'
p1698
aS'73893840'
p1699
aS'23257088'
p1700
aS'91196968'
p1701
aS'86988337'
p1702
aS'86807027'
p1703
aS'22826928'
p1704
aS'60661905'
p1705
aS'96054456'
p1706
aS'27582862'
p1707
aS'15249775'
p1708
aS'46701583'
p1709
aS'66433883'
p1710
aS'3678531'
p1711
aS'64393888'
p1712
aS'93566383'
p1713
aS'670011'
p1714
aS'7492204'
p1715
asg55
g1656
sg57
g1657
sg59
g1201
sbag1
(g2
g3
Ntp1716
Rp1717
(dp1718
g7
I1
sg8
(lp1719
g85
ag86
ag87
ag88
ag89
ag90
ag91
ag92
ag93
ag94
ag95
ag96
ag97
ag98
ag99
ag100
ag101
ag102
ag103
ag104
asg55
g1464
sg57
g127
sg59
g1018
sbag1
(g2
g3
Ntp1720
Rp1721
(dp1722
g7
I2
sg8
(lp1723
g932
ag933
asg55
g1540
sg57
g935
sg59
g1201
sbag1
(g2
g3
Ntp1724
Rp1725
(dp1726
g7
I1
sg8
(lp1727
g152
ag153
ag154
ag155
ag156
ag157
ag158
ag159
ag160
ag161
ag162
ag163
ag164
ag165
ag166
ag167
ag168
ag169
ag170
ag171
asg55
g1469
sg57
g187
sg59
g1201
sbag1
(g2
g3
Ntp1728
Rp1729
(dp1730
g7
I1
sg8
(lp1731
g1039
ag1040
ag1041
ag1042
ag1043
ag1044
ag1045
ag1046
ag1047
ag1048
asg55
g1400
sg57
g1057
sg59
g1018
sbag1
(g2
g3
Ntp1732
Rp1733
(dp1734
g7
I1
sg8
(lp1735
g85
ag86
ag87
ag88
ag89
ag90
ag91
ag92
ag93
ag94
ag95
ag96
ag97
ag98
ag99
ag100
ag101
ag102
ag103
ag104
asg55
g1500
sg57
g127
sg59
g1201
sbag1
(g2
g3
Ntp1736
Rp1737
(dp1738
g7
I0
sg8
(lp1739
S'82066165'
p1740
aS'8522855'
p1741
aS'69459473'
p1742
aS'88737765'
p1743
aS'87602030'
p1744
aS'66701209'
p1745
aS'41644639'
p1746
aS'46701583'
p1747
aS'51673172'
p1748
aS'14398123'
p1749
aS'5526560'
p1750
aS'94467156'
p1751
aS'34773179'
p1752
aS'25994016'
p1753
aS'74361881'
p1754
asg55
S'15'
p1755
sg57
S'Project Genetic Algorithms'
p1756
sg59
g1201
sbag1
(g2
g3
Ntp1757
Rp1758
(dp1759
g7
I1
sg8
(lp1760
S'54772132'
p1761
aS'45414528'
p1762
aS'70113753'
p1763
aS'58332004'
p1764
aS'51593625'
p1765
aS'1048485'
p1766
aS'34900967'
p1767
aS'2317551'
p1768
aS'31416266'
p1769
aS'88597745'
p1770
aS'94467156'
p1771
aS'15902055'
p1772
aS'10702778'
p1773
aS'38499176'
p1774
aS'92778619'
p1775
aS'33776961'
p1776
aS'99272880'
p1777
aS'62701040'
p1778
aS'58040377'
p1779
aS'86291592'
p1780
asg55
g1656
sg57
g1657
sg59
g1201
sbag1
(g2
g3
Ntp1781
Rp1782
(dp1783
g7
I2
sg8
(lp1784
S'48678993'
p1785
aS'76661016'
p1786
aS'78821918'
p1787
aS'37770881'
p1788
aS'25106480'
p1789
aS'84449005'
p1790
asg55
g1755
sg57
g1756
sg59
g1201
sbag1
(g2
g3
Ntp1791
Rp1792
(dp1793
g7
I0
sg8
(lp1794
sg55
S'15'
p1795
sg57
g1024
sg59
g1201
sbag1
(g2
g3
Ntp1796
Rp1797
(dp1798
g7
I2
sg8
g1385
sg55
g1386
sg57
g1387
sg59
g60
sbag1
(g2
g3
Ntp1799
Rp1800
(dp1801
g7
I6
sg8
g1385
sg55
g1386
sg57
g1387
sg59
g60
sbag1
(g2
g3
Ntp1802
Rp1803
(dp1804
g7
I5
sg8
g1385
sg55
g1386
sg57
g1387
sg59
g60
sbag1
(g2
g3
Ntp1805
Rp1806
(dp1807
g7
I0
sg8
(lp1808
g1029
ag1030
ag1031
ag1032
ag1033
ag1034
ag1035
ag1036
ag1037
ag1038
asg55
g1447
sg57
g1057
sg59
g1201
sbag1
(g2
g3
Ntp1809
Rp1810
(dp1811
g7
I3
sg8
g1605
sg55
g1656
sg57
g1657
sg59
g1201
sbag1
(g2
g3
Ntp1812
Rp1813
(dp1814
g7
I1
sg8
(lp1815
g152
ag153
ag154
ag155
ag156
ag157
ag158
ag159
ag160
ag161
ag162
ag163
ag164
ag165
ag166
ag167
ag168
ag169
ag170
ag171
asg55
g1405
sg57
g187
sg59
g1018
sbag1
(g2
g3
Ntp1816
Rp1817
(dp1818
g7
I1
sg8
(lp1819
g1119
ag1120
ag1121
ag1122
ag1123
ag1124
ag1125
ag1126
ag1127
ag1128
ag1129
ag1130
ag1131
ag1132
ag1133
ag1134
ag1135
ag1136
ag1137
asg55
S'20'
p1820
sg57
g1139
sg59
g1018
sbag1
(g2
g3
Ntp1821
Rp1822
(dp1823
g7
I2
sg8
(lp1824
g50
ag51
ag52
ag53
ag54
asg55
g1437
sg57
g58
sg59
g1018
sbag1
(g2
g3
Ntp1825
Rp1826
(dp1827
g7
I2
sg8
(lp1828
S'47477884'
p1829
aS'77960666'
p1830
aS'63634350'
p1831
aS'44391517'
p1832
aS'86000192'
p1833
aS'56749879'
p1834
aS'53585410'
p1835
aS'26857113'
p1836
aS'44671041'
p1837
aS'63096281'
p1838
aS'88519892'
p1839
aS'85284256'
p1840
aS'2416751'
p1841
aS'36903574'
p1842
aS'64947290'
p1843
aS'85236626'
p1844
aS'20618153'
p1845
aS'23215240'
p1846
aS'37279234'
p1847
aS'62105897'
p1848
asg55
g1656
sg57
g1657
sg59
g1201
sbag1
(g2
g3
Ntp1849
Rp1850
(dp1851
g7
I2
sg8
(lp1852
g1049
ag1050
ag1051
ag1052
ag1053
ag1054
ag1055
asg55
g1447
sg57
g1057
sg59
g1201
sbag1
(g2
g3
Ntp1853
Rp1854
(dp1855
g7
I2
sg8
(lp1856
S'60352393'
p1857
aS'40343779'
p1858
aS'44901052'
p1859
aS'4709948'
p1860
aS'64246605'
p1861
aS'77392404'
p1862
aS'26207525'
p1863
aS'56121590'
p1864
aS'19058315'
p1865
aS'87830198'
p1866
aS'81022997'
p1867
aS'66120270'
p1868
aS'48678993'
p1869
aS'37744525'
p1870
aS'25330192'
p1871
aS'28618400'
p1872
aS'34243356'
p1873
aS'12170832'
p1874
aS'29640619'
p1875
aS'56191333'
p1876
asg55
g1529
sg57
g1530
sg59
g1201
sbag1
(g2
g3
Ntp1877
Rp1878
(dp1879
g7
I0
sg8
(lp1880
g1099
ag1100
ag1101
ag1102
ag1103
ag1104
ag1105
ag1106
ag1107
ag1108
ag1109
ag1110
ag1111
ag1112
ag1113
ag1114
ag1115
ag1116
ag1117
ag1118
asg55
g1820
sg57
g1139
sg59
g1018
sbag1
(g2
g3
Ntp1881
Rp1882
(dp1883
g7
I0
sg8
(lp1884
sg55
g1431
sg57
g1432
sg59
g1201
sbag1
(g2
g3
Ntp1885
Rp1886
(dp1887
g7
I2
sg8
(lp1888
S'81022997'
p1889
aS'21070547'
p1890
aS'81116418'
p1891
aS'32183908'
p1892
aS'60312776'
p1893
aS'13996448'
p1894
aS'42406214'
p1895
aS'28618400'
p1896
aS'88752563'
p1897
aS'90103047'
p1898
aS'2550487'
p1899
aS'89338938'
p1900
aS'12430748'
p1901
aS'48503689'
p1902
asg55
g1425
sg57
g1426
sg59
g1201
sbag1
(g2
g3
Ntp1903
Rp1904
(dp1905
g7
I1
sg8
(lp1906
g922
ag923
ag924
ag925
ag926
ag927
ag928
ag929
ag930
ag931
asg55
g1459
sg57
g935
sg59
g1018
sbag1
(g2
g3
Ntp1907
Rp1908
(dp1909
g7
I2
sg8
(lp1910
g932
ag933
asg55
g1459
sg57
g935
sg59
g1018
sbag1
(g2
g3
Ntp1911
Rp1912
(dp1913
g7
I2
sg8
(lp1914
g1049
ag1050
ag1051
ag1052
ag1053
ag1054
ag1055
asg55
g1400
sg57
g1057
sg59
g1018
sbag1
(g2
g3
Ntp1915
Rp1916
(dp1917
g7
I2
sg8
(lp1918
g172
ag173
ag174
ag175
ag176
ag177
ag178
ag179
ag180
ag181
ag182
ag183
ag184
ag185
asg55
g1469
sg57
g187
sg59
g1201
sbag1
(g2
g3
Ntp1919
Rp1920
(dp1921
g7
I1
sg8
(lp1922
S'55480737'
p1923
aS'24613625'
p1924
aS'68409833'
p1925
aS'99283252'
p1926
aS'27925117'
p1927
aS'86180471'
p1928
aS'75680261'
p1929
aS'58253841'
p1930
aS'27950803'
p1931
aS'25077484'
p1932
aS'14179347'
p1933
aS'40633534'
p1934
aS'76924297'
p1935
aS'87830198'
p1936
aS'41578612'
p1937
asg55
g1755
sg57
g1756
sg59
g1201
sbag1
(g2
g3
Ntp1938
Rp1939
(dp1940
g7
I0
sg8
(lp1941
g1295
ag1296
ag1297
ag1298
ag1299
ag1300
ag1301
ag1302
ag1303
ag1304
ag1305
ag1306
ag1307
ag1308
ag1309
ag1310
ag1311
ag1312
ag1313
ag1314
asg55
g1669
sg57
g1328
sg59
g1018
sbag1
(g2
g3
Ntp1942
Rp1943
(dp1944
g7
I1
sg8
(lp1945
sg55
g1795
sg57
g1024
sg59
g1201
sbag1
(g2
g3
Ntp1946
Rp1947
(dp1948
g7
I0
sg8
(lp1949
S'82689818'
p1950
aS'81385263'
p1951
aS'51741554'
p1952
aS'70844780'
p1953
aS'97135019'
p1954
aS'8522855'
p1955
aS'82872148'
p1956
aS'81200278'
p1957
aS'18266644'
p1958
aS'70939718'
p1959
aS'62736669'
p1960
aS'7957843'
p1961
aS'5590289'
p1962
aS'63573738'
p1963
aS'57467488'
p1964
aS'53267490'
p1965
aS'59075181'
p1966
aS'33930505'
p1967
aS'54772132'
p1968
aS'14398123'
p1969
asg55
g1529
sg57
g1530
sg59
g1201
sbag1
(g2
g3
Ntp1970
Rp1971
(dp1972
g7
I11
sg8
g1385
sg55
g1386
sg57
g1387
sg59
g60
sba.