(lp0
ccopy_reg
_reconstructor
p1
(cbase
Lessons
p2
c__builtin__
object
p3
Ntp4
Rp5
(dp6
S'sort'
p7
I1
sS'students'
p8
(lp9
S'20331158'
p10
aS'4568018'
p11
aS'14591033'
p12
aS'42171678'
p13
aS'14816774'
p14
aS'20830477'
p15
aS'97019450'
p16
aS'81218347'
p17
aS'79879876'
p18
aS'58736785'
p19
aS'11996292'
p20
aS'14138904'
p21
aS'22323043'
p22
aS'98105190'
p23
aS'13658563'
p24
aS'53775014'
p25
aS'53107172'
p26
aS'75521763'
p27
aS'94930277'
p28
asS'amount'
p29
S'25'
p30
sS'name'
p31
S'Heuristieken 1'
p32
sS'group_name'
p33
S'wc'
p34
sbag1
(g2
g3
Ntp35
Rp36
(dp37
g7
I0
sg8
(lp38
S'64296965'
p39
aS'82689818'
p40
aS'23257088'
p41
aS'5517869'
p42
aS'62736669'
p43
aS'86988337'
p44
aS'96054456'
p45
aS'670011'
p46
aS'57467488'
p47
aS'47932106'
p48
aS'3168419'
p49
aS'4529208'
p50
aS'59397895'
p51
aS'13132925'
p52
aS'58332004'
p53
aS'5526560'
p54
aS'73823548'
p55
aS'54540997'
p56
aS'75005528'
p57
aS'58083680'
p58
aS'51542218'
p59
aS'247918'
p60
aS'29526540'
p61
aS'47477884'
p62
aS'77960666'
p63
aS'40434933'
p64
aS'56872729'
p65
aS'56749879'
p66
aS'13092455'
p67
aS'40141996'
p68
aS'86180471'
p69
aS'34872117'
p70
aS'64947290'
p71
aS'25077484'
p72
aS'27123462'
p73
aS'60352393'
p74
aS'76123484'
p75
aS'43902015'
p76
aS'17222374'
p77
aS'52552718'
p78
asg29
S'40'
p79
sg31
S'Databases 2'
p80
sg33
g34
sbag1
(g2
g3
Ntp81
Rp82
(dp83
g7
I1
sg8
(lp84
S'52311353'
p85
aS'42778953'
p86
aS'81385263'
p87
aS'54074680'
p88
aS'62872965'
p89
aS'91196968'
p90
aS'5517869'
p91
aS'90743504'
p92
aS'16011419'
p93
aS'93566383'
p94
aS'670011'
p95
aS'87758823'
p96
aS'48308205'
p97
aS'71839156'
p98
aS'36508571'
p99
aS'10149535'
p100
aS'31416266'
p101
aS'80709893'
p102
aS'38499176'
p103
aS'75005528'
p104
aS'16097870'
p105
aS'96118484'
p106
aS'34588570'
p107
aS'79937969'
p108
aS'36527838'
p109
aS'56872729'
p110
aS'42115591'
p111
aS'68409833'
p112
aS'61060652'
p113
aS'58866007'
p114
aS'3474870'
p115
aS'94955328'
p116
aS'35330349'
p117
aS'80998260'
p118
aS'55412918'
p119
aS'74182182'
p120
aS'4921119'
p121
aS'37399898'
p122
aS'94686490'
p123
aS'14591033'
p124
aS'42196732'
p125
aS'81218347'
p126
aS'77896638'
p127
aS'41578612'
p128
aS'55474917'
p129
aS'79617364'
p130
aS'34243356'
p131
aS'26172512'
p132
aS'16333449'
p133
aS'83210352'
p134
aS'32595335'
p135
aS'66570705'
p136
aS'23565001'
p137
aS'21311067'
p138
asg29
S'54'
p139
sg31
S'Lineaire Algebra'
p140
sg33
S'hc'
p141
sbag1
(g2
g3
Ntp142
Rp143
(dp144
g7
I0
sg8
(lp145
S'22871048'
p146
aS'62872965'
p147
aS'5517869'
p148
aS'74131924'
p149
aS'27298319'
p150
aS'11915563'
p151
aS'70113753'
p152
aS'36508571'
p153
aS'62356458'
p154
aS'16097870'
p155
aS'54026378'
p156
aS'68409833'
p157
aS'37110913'
p158
aS'61611295'
p159
aS'52552718'
p160
aS'44901052'
p161
aS'19858730'
p162
aS'51566595'
p163
aS'88627897'
p164
aS'39459642'
p165
aS'34806836'
p166
aS'72796858'
p167
asg29
S'22'
p168
sg31
S'Autonomous Agents 2'
p169
sg33
g141
sbag1
(g2
g3
Ntp170
Rp171
(dp172
g7
I2
sg8
(lp173
S'77896638'
p174
aS'60312776'
p175
aS'94687383'
p176
aS'6723948'
p177
aS'76661016'
p178
aS'5595824'
p179
aS'80135353'
p180
aS'26406342'
p181
aS'39459642'
p182
aS'34243356'
p183
aS'88752563'
p184
aS'11741347'
p185
aS'34110913'
p186
aS'46989508'
p187
aS'65675896'
p188
aS'14138904'
p189
aS'91250534'
p190
aS'88636924'
p191
aS'5085194'
p192
aS'98105190'
p193
aS'95007221'
p194
aS'31194811'
p195
aS'5892092'
p196
aS'65960683'
p197
aS'37770881'
p198
aS'2079771'
p199
aS'72796858'
p200
aS'48503689'
p201
aS'52715680'
p202
asg29
S'40'
p203
sg31
S'Compilerbouw'
p204
sg33
g34
sbag1
(g2
g3
Ntp205
Rp206
(dp207
g7
I1
sg8
(lp208
S'36903574'
p209
aS'64947290'
p210
aS'3474870'
p211
aS'41527759'
p212
aS'43902015'
p213
aS'40343779'
p214
aS'91527663'
p215
aS'64554442'
p216
aS'21964491'
p217
aS'51566595'
p218
aS'51509565'
p219
aS'23983476'
p220
aS'3707829'
p221
aS'58592894'
p222
aS'96453361'
p223
aS'44828429'
p224
aS'23652927'
p225
aS'52715680'
p226
asg29
S'25'
p227
sg31
S'Algoritmen en complexiteit'
p228
sg33
g34
sbag1
(g2
g3
Ntp229
Rp230
(dp231
g7
I4
sg8
(lp232
S'94955328'
p233
aS'90296821'
p234
aS'4709948'
p235
aS'58469172'
p236
aS'68601184'
p237
aS'92977271'
p238
aS'79167252'
p239
aS'17823206'
p240
aS'39905995'
p241
aS'4921119'
p242
aS'83415514'
p243
aS'47982619'
p244
aS'88263855'
p245
aS'37399898'
p246
aS'64053722'
p247
aS'34262212'
p248
aS'21964491'
p249
aS'20830477'
p250
aS'97019450'
p251
aS'73196865'
p252
aS'63111000'
p253
aS'27187154'
p254
aS'6913074'
p255
aS'8464817'
p256
aS'51791169'
p257
aS'77896638'
p258
aS'23983476'
p259
aS'64600457'
p260
aS'22288615'
p261
aS'23391676'
p262
aS'94687383'
p263
aS'6723948'
p264
aS'55474917'
p265
aS'13996448'
p266
aS'37744525'
p267
aS'80135353'
p268
aS'39459642'
p269
aS'2550487'
p270
aS'79879876'
p271
aS'7386961'
p272
aS'9332762'
p273
aS'10698627'
p274
aS'29640619'
p275
aS'41153310'
p276
aS'61443567'
p277
aS'70072978'
p278
aS'9731271'
p279
aS'12782624'
p280
aS'48503689'
p281
aS'23658570'
p282
asg29
S'20'
p283
sg31
S'Programmeren in Java 2'
p284
sg33
S'pr'
p285
sbag1
(g2
g3
Ntp286
Rp287
(dp288
g7
I2
sg8
(lp289
S'25330192'
p290
aS'68360259'
p291
aS'59753700'
p292
aS'70878567'
p293
aS'97136582'
p294
aS'22323043'
p295
aS'98780382'
p296
asg29
S'10'
p297
sg31
S'Data Mining'
p298
sg33
g285
sbag1
(g2
g3
Ntp299
Rp300
(dp301
g7
I1
sg8
(lp302
S'81200278'
p303
aS'77831658'
p304
aS'56815156'
p305
aS'22826928'
p306
aS'96054456'
p307
aS'3168419'
p308
aS'59544049'
p309
aS'33930505'
p310
aS'74131924'
p311
aS'85335143'
p312
aS'5298748'
p313
aS'28359697'
p314
aS'43680781'
p315
aS'247918'
p316
aS'54026378'
p317
aS'11068043'
p318
aS'29526540'
p319
aS'44868097'
p320
aS'58522654'
p321
aS'24613625'
p322
aS'56749879'
p323
aS'22731474'
p324
aS'30195935'
p325
aS'20883994'
p326
aS'7308727'
p327
aS'88176729'
p328
aS'73236988'
p329
aS'89985072'
p330
aS'4568018'
p331
aS'53202517'
p332
aS'21964491'
p333
aS'14591033'
p334
aS'14816774'
p335
aS'42196732'
p336
aS'6913074'
p337
aS'66120270'
p338
aS'64600457'
p339
aS'6723948'
p340
aS'79617364'
p341
aS'33877725'
p342
aS'21029457'
p343
aS'70878567'
p344
aS'96453361'
p345
aS'15051051'
p346
aS'30050930'
p347
asg29
S'45'
p348
sg31
S'Bioinformatica'
p349
sg33
g141
sbag1
(g2
g3
Ntp350
Rp351
(dp352
g7
I0
sg8
(lp353
sg29
S'15'
p354
sg31
S'Zoeken, sturen en bewegen'
p355
sg33
g285
sbag1
(g2
g3
Ntp356
Rp357
(dp358
g7
I0
sg8
(lp359
g39
ag40
ag41
ag42
ag43
ag44
ag45
ag46
ag47
ag48
ag49
ag50
ag51
ag52
ag53
ag54
ag55
ag56
ag57
ag58
ag59
ag60
ag61
ag62
ag63
ag64
ag65
ag66
ag67
ag68
ag69
ag70
ag71
ag72
ag73
ag74
ag75
ag76
ag77
ag78
aS'12091019'
p360
aS'91527663'
p361
aS'26207525'
p362
aS'56121590'
p363
aS'4921119'
p364
aS'49631542'
p365
aS'94686490'
p366
aS'83869542'
p367
aS'43027916'
p368
aS'14816774'
p369
aS'90474003'
p370
aS'42196732'
p371
aS'15187217'
p372
aS'51566595'
p373
aS'77896638'
p374
aS'26406342'
p375
aS'39459642'
p376
aS'78821918'
p377
aS'88752563'
p378
aS'58592894'
p379
aS'11996292'
p380
aS'46989508'
p381
aS'29640619'
p382
aS'56191333'
p383
aS'37701751'
p384
aS'17092717'
p385
aS'5085194'
p386
aS'70072978'
p387
aS'72796858'
p388
aS'24277163'
p389
aS'72456780'
p390
aS'23658570'
p391
asg29
S'72'
p392
sg31
g80
sg33
g141
sbag1
(g2
g3
Ntp393
Rp394
(dp395
g7
I0
sg8
(lp396
S'22871048'
p397
aS'86807027'
p398
aS'57467488'
p399
aS'59075181'
p400
aS'14941752'
p401
aS'71839156'
p402
aS'87210640'
p403
aS'45660925'
p404
aS'66122625'
p405
aS'75997788'
p406
aS'97417002'
p407
aS'31897288'
p408
aS'1696500'
p409
aS'4783858'
p410
aS'56749879'
p411
aS'61060652'
p412
aS'36903574'
p413
aS'37110913'
p414
aS'4353500'
p415
aS'76393508'
p416
aS'48357272'
p417
aS'44901052'
p418
aS'83443653'
p419
aS'92977271'
p420
aS'19858730'
p421
asg29
g30
sg31
g32
sg33
g34
sbag1
(g2
g3
Ntp422
Rp423
(dp424
g7
I0
sg8
(lp425
S'70844780'
p426
aS'78136904'
p427
aS'22871048'
p428
aS'96554914'
p429
aS'20239127'
p430
aS'51415617'
p431
aS'36785409'
p432
aS'49922855'
p433
aS'86988337'
p434
aS'54569540'
p435
aS'22826928'
p436
aS'60661905'
p437
aS'13718298'
p438
aS'27370083'
p439
aS'20095994'
p440
aS'99453514'
p441
aS'5298748'
p442
aS'84524083'
p443
aS'92778619'
p444
aS'3685034'
p445
asg29
S'20'
p446
sg31
S'Reflectie op de digitale cultuur'
p447
sg33
g34
sbag1
(g2
g3
Ntp448
Rp449
(dp450
g7
I1
sg8
(lp451
S'40791377'
p452
aS'46701583'
p453
aS'49683101'
p454
aS'94467156'
p455
aS'3685034'
p456
aS'26857113'
p457
aS'90067329'
p458
aS'23798155'
p459
aS'5976174'
p460
aS'77240949'
p461
aS'85236626'
p462
aS'38296757'
p463
aS'33252501'
p464
aS'63111000'
p465
aS'27187154'
p466
aS'61518436'
p467
aS'67625383'
p468
aS'37744525'
p469
aS'39459642'
p470
aS'15051051'
p471
aS'56988998'
p472
aS'2079771'
p473
asg29
S'22'
p474
sg31
S'Machine Learning'
p475
sg33
g141
sbag1
(g2
g3
Ntp476
Rp477
(dp478
g7
I1
sg8
(lp479
S'36785409'
p480
aS'77636749'
p481
aS'12077419'
p482
aS'58565406'
p483
aS'76487754'
p484
aS'68315599'
p485
aS'85335143'
p486
aS'93041523'
p487
aS'48308205'
p488
aS'7106649'
p489
aS'77264363'
p490
aS'14383795'
p491
aS'10149535'
p492
aS'21192048'
p493
aS'92496780'
p494
aS'6249823'
p495
aS'43680781'
p496
aS'23547619'
p497
aS'40434933'
p498
aS'70336464'
p499
aS'4697362'
p500
aS'75664412'
p501
aS'37110913'
p502
aS'44901052'
p503
aS'47982619'
p504
aS'14309255'
p505
aS'97371272'
p506
aS'32204977'
p507
aS'41578612'
p508
aS'69086548'
p509
aS'26406342'
p510
aS'9332762'
p511
aS'11996292'
p512
aS'89338938'
p513
aS'22323043'
p514
aS'12430748'
p515
aS'31194811'
p516
aS'75521763'
p517
asg29
S'38'
p518
sg31
S'Technology for games'
p519
sg33
g141
sbag1
(g2
g3
Ntp520
Rp521
(dp522
g7
I0
sg8
(lp523
S'82066165'
p524
aS'13284244'
p525
aS'42778953'
p526
aS'81385263'
p527
aS'44151631'
p528
aS'40791377'
p529
aS'5368702'
p530
aS'86988337'
p531
aS'12077419'
p532
aS'7957843'
p533
aS'15911353'
p534
aS'66701209'
p535
aS'41644639'
p536
aS'51673172'
p537
aS'50143947'
p538
aS'68315599'
p539
aS'75599734'
p540
aS'79033175'
p541
aS'54772132'
p542
aS'65852230'
p543
aS'11915563'
p544
aS'48308205'
p545
aS'72895450'
p546
aS'14383795'
p547
aS'51472074'
p548
aS'71839156'
p549
aS'49683101'
p550
aS'535689'
p551
aS'2317551'
p552
aS'84524083'
p553
aS'38499176'
p554
aS'11459236'
p555
aS'1766560'
p556
aS'99272880'
p557
aS'43689934'
p558
aS'10792879'
p559
aS'88855695'
p560
aS'47260040'
p561
aS'86291592'
p562
aS'1695839'
p563
aS'14303208'
p564
aS'11068043'
p565
aS'25994016'
p566
aS'13911001'
p567
ag567
aS'88596522'
p568
aS'74361881'
p569
aS'76802764'
p570
aS'63634350'
p571
aS'58522654'
p572
aS'44391517'
p573
aS'24613625'
p574
aS'53585410'
p575
aS'64418623'
p576
aS'30658799'
p577
aS'75664412'
p578
aS'3407554'
p579
ag579
aS'1665980'
p580
aS'72665524'
p581
aS'34872117'
p582
aS'27950803'
p583
aS'23215240'
p584
aS'92665222'
p585
aS'73236988'
p586
aS'42297781'
p587
aS'79167252'
p588
aS'89985072'
p589
aS'95631564'
p590
aS'83266686'
p591
aS'4568018'
p592
aS'53202517'
p593
aS'57595888'
p594
aS'9067939'
p595
aS'14309255'
p596
aS'75759231'
p597
aS'27187154'
p598
aS'32204977'
p599
aS'8464817'
p600
aS'55103073'
p601
ag174
ag175
ag176
ag177
ag178
ag179
ag180
ag181
ag182
ag183
ag184
ag185
ag186
ag187
ag188
ag189
ag190
ag191
ag192
ag193
ag194
ag195
ag196
ag197
ag198
ag199
ag200
ag201
ag202
asg29
S'109'
p602
sg31
g204
sg33
g141
sbag1
(g2
g3
Ntp603
Rp604
(dp605
g7
I0
sg8
(lp606
S'13534377'
p607
aS'50184318'
p608
aS'64296965'
p609
aS'42778953'
p610
aS'82689818'
p611
aS'51741554'
p612
aS'97135019'
p613
aS'46052388'
p614
aS'1075391'
p615
aS'45556081'
p616
aS'5517869'
p617
aS'33760909'
p618
aS'64393888'
p619
aS'50143947'
p620
aS'87758823'
p621
aS'31416266'
p622
aS'15902055'
p623
aS'34773179'
p624
aS'62701040'
p625
aS'48601268'
p626
asg29
S'20'
p627
sg31
S'Collectieve Intelligentie'
p628
sg33
g34
sbag1
(g2
g3
Ntp629
Rp630
(dp631
g7
I1
sg8
(lp632
S'70015932'
p633
aS'82689818'
p634
aS'45556081'
p635
aS'29718115'
p636
aS'49683101'
p637
aS'43460038'
p638
aS'10149535'
p639
aS'13798030'
p640
aS'40434933'
p641
aS'72683344'
p642
aS'27925117'
p643
aS'72577292'
p644
aS'23798155'
p645
aS'58866007'
p646
aS'34872117'
p647
aS'83266686'
p648
aS'20331158'
p649
aS'28618400'
p650
aS'89180944'
p651
aS'14138904'
p652
aS'59289233'
p653
asg29
S'21'
p654
sg31
S'Architectuur en computerorganisatie'
p655
sg33
g141
sbag1
(g2
g3
Ntp656
Rp657
(dp658
g7
I0
sg8
(lp659
g146
ag147
ag148
ag149
ag150
ag151
ag152
ag153
ag154
ag155
asg29
S'10'
p660
sg31
g169
sg33
g285
sbag1
(g2
g3
Ntp661
Rp662
(dp663
g7
I0
sg8
(lp664
S'1886996'
p665
aS'70844780'
p666
aS'78136904'
p667
aS'27064249'
p668
aS'86807027'
p669
aS'3168419'
p670
aS'75997788'
p671
aS'23547619'
p672
aS'62613937'
p673
aS'47477884'
p674
aS'72683344'
p675
aS'72577292'
p676
aS'20883994'
p677
aS'72665524'
p678
aS'60352393'
p679
aS'92665222'
p680
aS'40633534'
p681
aS'28618400'
p682
aS'39429093'
p683
aS'14847953'
p684
asg29
S'20'
p685
sg31
S'Advanced Heuristics'
p686
sg33
g141
sbag1
(g2
g3
Ntp687
Rp688
(dp689
g7
I2
sg8
(lp690
S'81022997'
p691
aS'21070547'
p692
aS'81116418'
p693
aS'32183908'
p694
aS'60312776'
p695
aS'13996448'
p696
aS'42406214'
p697
aS'28618400'
p698
aS'88752563'
p699
aS'90103047'
p700
aS'2550487'
p701
aS'89338938'
p702
aS'12430748'
p703
aS'48503689'
p704
asg29
S'15'
p705
sg31
S'Project Numerical Recipes'
p706
sg33
g285
sbag1
(g2
g3
Ntp707
Rp708
(dp709
g7
I2
sg8
(lp710
g290
ag291
ag292
ag293
ag294
ag295
ag296
asg29
S'10'
p711
sg31
g298
sg33
g34
sbag1
(g2
g3
Ntp712
Rp713
(dp714
g7
I1
sg8
(lp715
g675
ag676
ag677
ag678
ag679
ag680
ag681
ag682
ag683
ag684
asg29
S'10'
p716
sg31
g686
sg33
g285
sbag1
(g2
g3
Ntp717
Rp718
(dp719
g7
I0
sg8
(lp720
sg29
S'15'
p721
sg31
S'Informatie- en organisatieontwerp'
p722
sg33
g34
sbag1
(g2
g3
Ntp723
Rp724
(dp725
g7
I1
sg8
(lp726
S'5976174'
p727
aS'31247305'
p728
aS'27950803'
p729
aS'62105897'
p730
aS'41527759'
p731
aS'65408517'
p732
aS'88176729'
p733
aS'40343779'
p734
aS'52552718'
p735
aS'48357272'
p736
aS'73302736'
p737
aS'73236988'
p738
aS'14072826'
p739
aS'9287708'
p740
aS'89985072'
p741
aS'95631564'
p742
aS'4568018'
p743
aS'14309255'
p744
aS'65318664'
p745
aS'28357474'
p746
aS'60312776'
p747
aS'55474917'
p748
aS'37744525'
p749
aS'45915482'
p750
aS'89180944'
p751
aS'33877725'
p752
aS'83210352'
p753
aS'29640619'
p754
aS'89338938'
p755
aS'41153310'
p756
aS'22323043'
p757
aS'78443067'
p758
aS'25106480'
p759
aS'58074656'
p760
aS'52715680'
p761
asg29
S'40'
p762
sg31
S'Software engineering'
p763
sg33
g285
sbag1
(g2
g3
Ntp764
Rp765
(dp766
g7
I1
sg8
(lp767
S'66122625'
p768
aS'87900893'
p769
aS'13116738'
p770
aS'37110913'
p771
aS'17823206'
p772
aS'21964491'
p773
aS'81022997'
p774
aS'51566595'
p775
aS'13996448'
p776
aS'37744525'
p777
asg29
g297
sg31
g298
sg33
g285
sbag1
(g2
g3
Ntp778
Rp779
(dp780
g7
I4
sg8
(lp781
sg29
S'0'
p782
sg31
S'empty'
p783
sg33
g141
sbag1
(g2
g3
Ntp784
Rp785
(dp786
g7
I1
sg8
(lp787
g564
ag565
ag566
ag567
ag567
ag568
ag569
ag570
ag571
ag572
ag573
ag574
ag575
ag576
ag577
ag578
ag579
ag579
ag580
ag581
ag582
ag583
ag584
ag585
ag586
ag587
ag588
ag589
ag590
ag591
ag592
ag593
ag594
ag595
ag596
ag597
ag598
ag599
ag600
ag601
asg29
g203
sg31
g204
sg33
g34
sbag1
(g2
g3
Ntp788
Rp789
(dp790
g7
I0
sg8
(lp791
S'52311353'
p792
aS'64296965'
p793
aS'22871048'
p794
aS'18266644'
p795
aS'88737765'
p796
aS'36785409'
p797
aS'77831658'
p798
aS'56815156'
p799
aS'60661905'
p800
aS'13718298'
p801
aS'78822885'
p802
aS'85335143'
p803
aS'18477924'
p804
aS'14637758'
p805
aS'58480929'
p806
aS'34900967'
p807
aS'16097870'
p808
aS'75997788'
p809
aS'51542218'
p810
aS'62613937'
p811
aS'97838175'
p812
aS'42115591'
p813
aS'72586808'
p814
aS'23798155'
p815
aS'48357272'
p816
aS'80188025'
p817
aS'73302736'
p818
aS'94955328'
p819
aS'83443653'
p820
aS'4921119'
p821
aS'82854435'
p822
aS'43027916'
p823
aS'97019450'
p824
aS'65318664'
p825
aS'87830198'
p826
aS'70193386'
p827
aS'57086672'
p828
aS'41578612'
p829
aS'48678993'
p830
aS'5595824'
p831
aS'56544130'
p832
aS'78821918'
p833
aS'34243356'
p834
aS'5085194'
p835
aS'23565001'
p836
aS'73350019'
p837
aS'72456780'
p838
aS'33672995'
p839
aS'23658570'
p840
asg29
S'49'
p841
sg31
S'Analysemethoden en -technieken'
p842
sg33
g141
sbag1
(g2
g3
Ntp843
Rp844
(dp845
g7
I0
sg8
(lp846
g524
ag525
ag526
ag527
ag528
ag529
ag530
ag531
ag532
ag533
ag534
ag535
ag536
ag537
ag538
ag539
ag540
ag541
ag542
ag543
ag544
ag545
ag546
ag547
ag548
ag549
ag550
ag551
ag552
ag553
ag554
ag555
ag556
ag557
ag558
ag559
ag560
ag561
ag562
ag563
asg29
S'40'
p847
sg31
g204
sg33
g285
sbag1
(g2
g3
Ntp848
Rp849
(dp850
g7
I1
sg8
(lp851
g727
ag728
ag729
ag730
ag731
ag732
ag733
ag734
ag735
ag736
ag737
ag738
ag739
ag740
ag741
ag742
ag743
ag744
ag745
ag746
ag747
ag748
ag749
ag750
ag751
ag752
ag753
ag754
ag755
ag756
ag757
ag758
ag759
ag760
ag761
asg29
S'40'
p852
sg31
g763
sg33
g34
sbag1
(g2
g3
Ntp853
Rp854
(dp855
g7
I2
sg8
(lp856
g166
ag167
asg29
g660
sg31
g169
sg33
g285
sbag1
(g2
g3
Ntp857
Rp858
(dp859
g7
I2
sg8
(lp860
g166
ag167
asg29
S'10'
p861
sg31
g169
sg33
g34
sbag1
(g2
g3
Ntp862
Rp863
(dp864
g7
I1
sg8
(lp865
S'81385263'
p866
aS'81200278'
p867
aS'5368702'
p868
aS'19214659'
p869
aS'93566383'
p870
aS'4546613'
p871
aS'38179241'
p872
aS'69634191'
p873
aS'81155296'
p874
aS'21677389'
p875
aS'23547619'
p876
aS'34765676'
p877
aS'76924297'
p878
aS'37399898'
p879
aS'66034145'
p880
aS'28055464'
p881
aS'76661016'
p882
aS'3707829'
p883
aS'2550487'
p884
aS'20374340'
p885
aS'37701751'
p886
aS'65675896'
p887
aS'64768422'
p888
aS'44828429'
p889
aS'14847953'
p890
asg29
S'25'
p891
sg31
S'Interactie-ontwerp'
p892
sg33
g141
sbag1
(g2
g3
Ntp893
Rp894
(dp895
g7
I0
sg8
g84
sg29
g139
sg31
g140
sg33
g141
sbag1
(g2
g3
Ntp896
Rp897
(dp898
g7
I2
sg8
(lp899
g343
ag344
ag345
ag346
ag347
asg29
S'20'
p900
sg31
g349
sg33
g34
sbag1
(g2
g3
Ntp901
Rp902
(dp903
g7
I2
sg8
(lp904
S'31306819'
p905
aS'6913074'
p906
aS'55530367'
p907
aS'64600457'
p908
aS'32705005'
p909
aS'23628642'
p910
aS'6723948'
p911
aS'11593163'
p912
aS'76661016'
p913
aS'45915482'
p914
aS'75446434'
p915
aS'79617364'
p916
aS'56544130'
p917
aS'88752563'
p918
aS'21029457'
p919
aS'58592894'
p920
aS'23565001'
p921
aS'62363761'
p922
aS'78443067'
p923
aS'9731271'
p924
aS'28957789'
p925
aS'61520025'
p926
aS'19717077'
p927
aS'33672995'
p928
aS'10609762'
p929
aS'23658570'
p930
asg29
S'40'
p931
sg31
S'Calculus 2'
p932
sg33
g34
sbag1
(g2
g3
Ntp933
Rp934
(dp935
g7
I0
sg8
(lp936
sg29
S'15'
p937
sg31
g722
sg33
g285
sbag1
(g2
g3
Ntp938
Rp939
(dp940
g7
I2
sg8
(lp941
g174
ag175
ag176
ag177
ag178
ag179
ag180
ag181
ag182
ag183
ag184
ag185
ag186
ag187
ag188
ag189
ag190
ag191
ag192
ag193
ag194
ag195
ag196
ag197
ag198
ag199
ag200
ag201
ag202
asg29
g847
sg31
g204
sg33
g285
sbag1
(g2
g3
Ntp942
Rp943
(dp944
g7
I6
sg8
g781
sg29
g782
sg31
g783
sg33
g141
sbag1
(g2
g3
Ntp945
Rp946
(dp947
g7
I0
sg8
(lp948
S'52311353'
p949
aS'93023961'
p950
aS'81200278'
p951
aS'91196968'
p952
aS'50143947'
p953
aS'74131924'
p954
aS'45414528'
p955
aS'19337738'
p956
aS'99453514'
p957
aS'87314964'
p958
asg29
g711
sg31
g298
sg33
g34
sbag1
(g2
g3
Ntp959
Rp960
(dp961
g7
I2
sg8
(lp962
sg29
g354
sg31
g355
sg33
g285
sbag1
(g2
g3
Ntp963
Rp964
(dp965
g7
I0
sg8
(lp966
g303
ag304
ag305
ag306
ag307
ag308
ag309
ag310
ag311
ag312
ag313
ag314
ag315
ag316
ag317
ag318
ag319
ag320
ag321
ag322
asg29
g900
sg31
g349
sg33
g34
sbag1
(g2
g3
Ntp967
Rp968
(dp969
g7
I0
sg8
(lp970
S'76903244'
p971
aS'53512831'
p972
aS'27064249'
p973
aS'69459473'
p974
aS'5615125'
p975
aS'24891081'
p976
aS'67073567'
p977
aS'78243495'
p978
aS'72895450'
p979
aS'49908313'
p980
aS'43460038'
p981
aS'41790793'
p982
aS'6249823'
p983
aS'14303208'
p984
aS'40434933'
p985
aS'72577292'
p986
aS'1137946'
p987
aS'2416751'
p988
aS'20618153'
p989
aS'3474870'
p990
asg29
S'20'
p991
sg31
S'Webprogrammeren en databases'
p992
sg33
g285
sbag1
(g2
g3
Ntp993
Rp994
(dp995
g7
I0
sg8
(lp996
g524
ag525
ag526
ag527
ag528
ag529
ag530
ag531
ag532
ag533
ag534
ag535
ag536
ag537
ag538
ag539
ag540
ag541
ag542
ag543
ag544
ag545
ag546
ag547
ag548
ag549
ag550
ag551
ag552
ag553
ag554
ag555
ag556
ag557
ag558
ag559
ag560
ag561
ag562
ag563
asg29
g203
sg31
g204
sg33
g34
sbag1
(g2
g3
Ntp997
Rp998
(dp999
g7
I1
sg8
(lp1000
S'77306636'
p1001
aS'63634350'
p1002
aS'86000192'
p1003
aS'4783858'
p1004
aS'75623387'
p1005
aS'27925117'
p1006
aS'53585410'
p1007
aS'46570285'
p1008
aS'40141996'
p1009
aS'86180471'
p1010
aS'79888156'
p1011
aS'58253841'
p1012
aS'72665524'
p1013
aS'82412626'
p1014
aS'38296757'
p1015
aS'58699305'
p1016
aS'37279234'
p1017
aS'62105897'
p1018
aS'22168693'
p1019
aS'65408517'
p1020
aS'72526473'
p1021
aS'48357272'
p1022
aS'80188025'
p1023
aS'73302736'
p1024
aS'12091019'
p1025
aS'14179347'
p1026
aS'58469172'
p1027
aS'34173695'
p1028
aS'64228258'
p1029
aS'79167252'
p1030
aS'55412918'
p1031
aS'74182182'
p1032
aS'83415514'
p1033
aS'83266686'
p1034
aS'94686490'
p1035
aS'14591033'
p1036
aS'24875739'
p1037
aS'78544592'
p1038
aS'14816774'
p1039
aS'27187154'
p1040
asg29
g931
sg31
g932
sg33
g34
sbag1
(g2
g3
Ntp1041
Rp1042
(dp1043
g7
I2
sg8
g302
sg29
g348
sg31
g349
sg33
g141
sbag1
(g2
g3
Ntp1044
Rp1045
(dp1046
g7
I0
sg8
(lp1047
g607
ag608
ag609
ag610
ag611
ag612
ag613
ag614
ag615
ag616
ag617
ag618
ag619
ag620
ag621
ag622
ag623
ag624
ag625
ag626
asg29
S'20'
p1048
sg31
g628
sg33
g285
sbag1
(g2
g3
Ntp1049
Rp1050
(dp1051
g7
I0
sg8
(lp1052
S'82689818'
p1053
aS'81385263'
p1054
aS'78136904'
p1055
aS'8522855'
p1056
aS'41585485'
p1057
aS'19540225'
p1058
aS'14671406'
p1059
aS'86988337'
p1060
aS'12077419'
p1061
aS'46701583'
p1062
aS'66433883'
p1063
aS'50143947'
p1064
aS'57467488'
p1065
aS'26260141'
p1066
aS'27298319'
p1067
aS'72895450'
p1068
aS'77376714'
p1069
aS'15902055'
p1070
aS'88596522'
p1071
aS'21095566'
p1072
aS'53585410'
p1073
aS'67817269'
p1074
aS'34765676'
p1075
aS'1665980'
p1076
aS'5976174'
p1077
asg29
g227
sg31
g228
sg33
g34
sbag1
(g2
g3
Ntp1078
Rp1079
(dp1080
g7
I1
sg8
(lp1081
S'55480737'
p1082
aS'24613625'
p1083
aS'68409833'
p1084
aS'99283252'
p1085
aS'27925117'
p1086
aS'86180471'
p1087
aS'75680261'
p1088
aS'58253841'
p1089
aS'27950803'
p1090
aS'25077484'
p1091
aS'14179347'
p1092
aS'40633534'
p1093
aS'76924297'
p1094
aS'87830198'
p1095
aS'41578612'
p1096
asg29
S'15'
p1097
sg31
S'Project Genetic Algorithms'
p1098
sg33
g285
sbag1
(g2
g3
Ntp1099
Rp1100
(dp1101
g7
I2
sg8
g781
sg29
g782
sg31
g783
sg33
g141
sbag1
(g2
g3
Ntp1102
Rp1103
(dp1104
g7
I5
sg8
g232
sg29
g283
sg31
g284
sg33
g285
sbag1
(g2
g3
Ntp1105
Rp1106
(dp1107
g7
I0
sg8
(lp1108
S'6709529'
p1109
aS'56348773'
p1110
aS'51741554'
p1111
aS'97135019'
p1112
aS'27064249'
p1113
aS'70939718'
p1114
aS'93361408'
p1115
aS'59220392'
p1116
aS'5615125'
p1117
aS'87602030'
p1118
aS'86807027'
p1119
aS'96054456'
p1120
aS'33760909'
p1121
aS'46701583'
p1122
aS'3678531'
p1123
aS'65978354'
p1124
aS'47932106'
p1125
aS'26260141'
p1126
aS'27298319'
p1127
aS'85335143'
p1128
aS'4546613'
p1129
aS'53139134'
p1130
aS'6939933'
p1131
aS'38179241'
p1132
aS'10149535'
p1133
aS'73823548'
p1134
aS'15902055'
p1135
aS'75585647'
p1136
aS'58040377'
p1137
aS'16097870'
p1138
aS'10792879'
p1139
aS'75997788'
p1140
aS'88855695'
p1141
aS'81155296'
p1142
aS'87900893'
p1143
aS'78735049'
p1144
aS'14303208'
p1145
aS'47477884'
p1146
aS'44868097'
p1147
aS'56872729'
p1148
ag1001
ag1002
ag1003
ag1004
ag1005
ag1006
ag1007
ag1008
ag1009
ag1010
ag1011
ag1012
ag1013
ag1014
ag1015
ag1016
ag1017
ag1018
ag1019
ag1020
ag1021
ag1022
ag1023
ag1024
ag1025
ag1026
ag1027
ag1028
ag1029
ag1030
ag1031
ag1032
ag1033
ag1034
ag1035
ag1036
ag1037
ag1038
ag1039
ag1040
ag905
ag906
ag907
ag908
ag909
ag910
ag911
ag912
ag913
ag914
ag915
ag916
ag917
ag918
ag919
ag920
ag921
ag922
ag923
ag924
ag925
ag926
ag927
ag928
ag929
ag930
asg29
S'106'
p1149
sg31
g932
sg33
g141
sbag1
(g2
g3
Ntp1150
Rp1151
(dp1152
g7
I0
sg8
(lp1153
S'82689818'
p1154
aS'81385263'
p1155
aS'51741554'
p1156
aS'70844780'
p1157
aS'97135019'
p1158
aS'8522855'
p1159
aS'82872148'
p1160
aS'81200278'
p1161
aS'18266644'
p1162
aS'70939718'
p1163
aS'62736669'
p1164
aS'7957843'
p1165
aS'5590289'
p1166
aS'63573738'
p1167
aS'57467488'
p1168
aS'53267490'
p1169
aS'59075181'
p1170
aS'33930505'
p1171
aS'54772132'
p1172
aS'14398123'
p1173
asg29
S'20'
p1174
sg31
S'Netwerken en systeembeveiliging'
p1175
sg33
g285
sbag1
(g2
g3
Ntp1176
Rp1177
(dp1178
g7
I9
sg8
g781
sg29
g782
sg31
g783
sg33
g141
sbag1
(g2
g3
Ntp1179
Rp1180
(dp1181
g7
I0
sg8
(lp1182
sg29
S'21'
p1183
sg31
g722
sg33
g141
sbag1
(g2
g3
Ntp1184
Rp1185
(dp1186
g7
I1
sg8
(lp1187
S'62356458'
p1188
aS'73823548'
p1189
aS'75005528'
p1190
aS'3685034'
p1191
aS'1766560'
p1192
aS'86291592'
p1193
aS'11068043'
p1194
aS'84110134'
p1195
aS'13092455'
p1196
aS'22731474'
p1197
aS'32044893'
p1198
aS'7308727'
p1199
aS'19662602'
p1200
aS'73236988'
p1201
aS'74182182'
p1202
asg29
g705
sg31
g706
sg33
g285
sbag1
(g2
g3
Ntp1203
Rp1204
(dp1205
g7
I1
sg8
(lp1206
g360
ag361
ag362
ag363
ag364
ag365
ag366
ag367
ag368
ag369
ag370
ag371
ag372
ag373
ag374
ag375
ag376
ag377
ag378
ag379
ag380
ag381
ag382
ag383
ag384
ag385
ag386
ag387
ag388
ag389
ag390
ag391
asg29
g79
sg31
g80
sg33
g34
sbag1
(g2
g3
Ntp1207
Rp1208
(dp1209
g7
I0
sg8
(lp1210
g480
ag481
ag482
ag483
ag484
ag485
ag486
ag487
ag488
ag489
ag490
ag491
ag492
ag493
ag494
ag495
ag496
ag497
ag498
ag499
asg29
S'20'
p1211
sg31
g519
sg33
g34
sbag1
(g2
g3
Ntp1212
Rp1213
(dp1214
g7
I0
sg8
(lp1215
S'54395877'
p1216
aS'41585485'
p1217
aS'28943658'
p1218
aS'73893840'
p1219
aS'23257088'
p1220
aS'91196968'
p1221
aS'86988337'
p1222
aS'86807027'
p1223
aS'22826928'
p1224
aS'60661905'
p1225
aS'96054456'
p1226
aS'27582862'
p1227
aS'15249775'
p1228
aS'46701583'
p1229
aS'66433883'
p1230
aS'3678531'
p1231
aS'64393888'
p1232
aS'93566383'
p1233
aS'670011'
p1234
aS'7492204'
p1235
asg29
g283
sg31
g284
sg33
g285
sbag1
(g2
g3
Ntp1236
Rp1237
(dp1238
g7
I1
sg8
(lp1239
g426
ag427
ag428
ag429
ag430
ag431
ag432
ag433
ag434
ag435
ag436
ag437
ag438
ag439
ag440
ag441
ag442
ag443
ag444
ag445
aS'33776961'
p1240
aS'43680781'
p1241
aS'77960666'
p1242
aS'13092455'
p1243
aS'27950803'
p1244
aS'27805666'
p1245
aS'37110913'
p1246
aS'32044893'
p1247
aS'38296757'
p1248
aS'60352393'
p1249
aS'4709948'
p1250
aS'77392404'
p1251
aS'37399898'
p1252
aS'36213792'
p1253
aS'82390428'
p1254
aS'87830198'
p1255
aS'90474003'
p1256
aS'99975346'
p1257
aS'70193386'
p1258
aS'6913074'
p1259
aS'61518436'
p1260
aS'57086672'
p1261
aS'41578612'
p1262
aS'42406214'
p1263
aS'68286356'
p1264
aS'59753700'
p1265
aS'13658563'
p1266
aS'84449005'
p1267
aS'24277163'
p1268
aS'51052738'
p1269
aS'52715680'
p1270
asg29
S'51'
p1271
sg31
g447
sg33
g141
sbag1
(g2
g3
Ntp1272
Rp1273
(dp1274
g7
I0
sg8
(lp1275
S'52311353'
p1276
aS'70015932'
p1277
aS'82872148'
p1278
aS'22871048'
p1279
aS'96554914'
p1280
aS'14671406'
p1281
aS'13718298'
p1282
aS'27582862'
p1283
aS'58565406'
p1284
aS'3727435'
p1285
aS'50143947'
p1286
aS'26260141'
p1287
aS'75599734'
p1288
aS'31103066'
p1289
aS'59544049'
p1290
aS'31633723'
p1291
aS'37830626'
p1292
aS'11915563'
p1293
aS'78243495'
p1294
aS'4546613'
p1295
aS'51593625'
p1296
aS'1048485'
p1297
aS'43460038'
p1298
aS'62356458'
p1299
aS'77376714'
p1300
aS'94467156'
p1301
aS'80709893'
p1302
aS'48601268'
p1303
aS'54026378'
p1304
aS'11068043'
p1305
aS'3233378'
p1306
aS'44868097'
p1307
aS'21095566'
p1308
aS'42115591'
p1309
aS'68409833'
p1310
aS'99283252'
p1311
aS'4783858'
p1312
aS'84110134'
p1313
aS'44671041'
p1314
aS'61060652'
p1315
asg29
g762
sg31
g763
sg33
g285
sbag1
(g2
g3
Ntp1316
Rp1317
(dp1318
g7
I0
sg8
g451
sg29
g474
sg31
g475
sg33
g141
sbag1
(g2
g3
Ntp1319
Rp1320
(dp1321
g7
I0
sg8
g865
sg29
g891
sg31
g892
sg33
g141
sbag1
(g2
g3
Ntp1322
Rp1323
(dp1324
g7
I0
sg8
(lp1325
S'13218321'
p1326
aS'36748818'
p1327
aS'50184318'
p1328
aS'27916487'
p1329
aS'5517869'
p1330
aS'96082155'
p1331
aS'68315599'
p1332
aS'1181560'
p1333
aS'66621166'
p1334
aS'85335143'
p1335
aS'49219163'
p1336
aS'78243495'
p1337
aS'58332004'
p1338
aS'77376714'
p1339
aS'33776961'
p1340
aS'1766560'
p1341
aS'43680781'
p1342
aS'75997788'
p1343
aS'27241113'
p1344
aS'29526540'
p1345
aS'36527838'
p1346
aS'13911001'
p1347
aS'99283252'
p1348
aS'51650744'
p1349
aS'46570285'
p1350
aS'30658799'
p1351
aS'3883025'
p1352
aS'58699305'
p1353
aS'18144425'
p1354
aS'17222374'
p1355
aS'4709948'
p1356
aS'83415514'
p1357
aS'49631542'
p1358
aS'83266686'
p1359
aS'78544592'
p1360
aS'42171678'
p1361
aS'14309255'
p1362
aS'63111000'
p1363
aS'41489515'
p1364
aS'59111489'
p1365
aS'64600457'
p1366
aS'78821918'
p1367
aS'89180944'
p1368
aS'11741347'
p1369
aS'58592894'
p1370
aS'11996292'
p1371
aS'47462856'
p1372
aS'48198668'
p1373
aS'70072978'
p1374
aS'78443067'
p1375
aS'15051051'
p1376
aS'84449005'
p1377
aS'24277163'
p1378
aS'75521763'
p1379
asg29
S'54'
p1380
sg31
S'Moderne Databases'
p1381
sg33
g141
sbag1
(g2
g3
Ntp1382
Rp1383
(dp1384
g7
I1
sg8
(lp1385
g323
ag324
ag325
ag326
ag327
ag328
ag329
ag330
ag331
ag332
ag333
ag334
ag335
ag336
ag337
ag338
ag339
ag340
ag341
ag342
asg29
S'20'
p1386
sg31
g349
sg33
g285
sbag1
(g2
g3
Ntp1387
Rp1388
(dp1389
g7
I3
sg8
(lp1390
S'75521763'
p1391
asg29
g1048
sg31
g628
sg33
g285
sbag1
(g2
g3
Ntp1392
Rp1393
(dp1394
g7
I1
sg8
(lp1395
S'86291592'
p1396
aS'22699561'
p1397
aS'23547619'
p1398
aS'3233378'
p1399
aS'1696500'
p1400
aS'58522654'
p1401
aS'86000192'
p1402
aS'4783858'
p1403
aS'72577292'
p1404
aS'54310617'
p1405
aS'13092455'
p1406
aS'17575088'
p1407
aS'1665980'
p1408
aS'96104167'
p1409
aS'77240949'
p1410
aS'29474737'
p1411
aS'7308727'
p1412
aS'76123484'
p1413
aS'17222374'
p1414
aS'35330349'
p1415
asg29
g1048
sg31
g628
sg33
g285
sbag1
(g2
g3
Ntp1416
Rp1417
(dp1418
g7
I10
sg8
g781
sg29
g782
sg31
g783
sg33
g141
sbag1
(g2
g3
Ntp1419
Rp1420
(dp1421
g7
I0
sg8
(lp1422
g607
ag608
ag609
ag610
ag611
ag612
ag613
ag614
ag615
ag616
ag617
ag618
ag619
ag620
ag621
ag622
ag623
ag624
ag625
ag626
ag1396
ag1397
ag1398
ag1399
ag1400
ag1401
ag1402
ag1403
ag1404
ag1405
ag1406
ag1407
ag1408
ag1409
ag1410
ag1411
ag1412
ag1413
ag1414
ag1415
aS'68601184'
p1423
aS'64228258'
p1424
aS'57595888'
p1425
aS'21964491'
p1426
aS'42171678'
p1427
aS'43027916'
p1428
aS'28357474'
p1429
aS'42196732'
p1430
aS'77896638'
p1431
aS'60312776'
p1432
aS'26406342'
p1433
aS'9332762'
p1434
aS'29640619'
p1435
aS'61443567'
p1436
aS'73980360'
p1437
aS'65960683'
p1438
aS'37770881'
p1439
aS'25106480'
p1440
aS'53107172'
p1441
aS'24277163'
p1442
ag1391
asg29
S'61'
p1443
sg31
g628
sg33
g141
sbag1
(g2
g3
Ntp1444
Rp1445
(dp1446
g7
I0
sg8
(lp1447
g1276
ag1277
ag1278
ag1279
ag1280
ag1281
ag1282
ag1283
ag1284
ag1285
ag1286
ag1287
ag1288
ag1289
ag1290
ag1291
ag1292
ag1293
ag1294
ag1295
ag1296
ag1297
ag1298
ag1299
ag1300
ag1301
ag1302
ag1303
ag1304
ag1305
ag1306
ag1307
ag1308
ag1309
ag1310
ag1311
ag1312
ag1313
ag1314
ag1315
asg29
g852
sg31
g763
sg33
g34
sbag1
(g2
g3
Ntp1448
Rp1449
(dp1450
g7
I0
sg8
(lp1451
S'1886996'
p1452
aS'81200278'
p1453
aS'87602030'
p1454
aS'52304977'
p1455
aS'33760909'
p1456
aS'15249775'
p1457
aS'82968410'
p1458
aS'670011'
p1459
aS'78243495'
p1460
aS'7106649'
p1461
aS'84524083'
p1462
aS'58040377'
p1463
aS'16097870'
p1464
aS'31897288'
p1465
aS'63634350'
p1466
aS'27925117'
p1467
aS'22731474'
p1468
aS'34765676'
p1469
aS'5976174'
p1470
aS'85236626'
p1471
aS'72652638'
p1472
aS'83869542'
p1473
aS'43027916'
p1474
aS'81022997'
p1475
aS'99975346'
p1476
aS'57086672'
p1477
aS'51566595'
p1478
aS'48678993'
p1479
aS'5739011'
p1480
aS'58736785'
p1481
aS'35315956'
p1482
aS'61443567'
p1483
asg29
S'32'
p1484
sg31
S'Heuristieken 2'
p1485
sg33
g141
sbag1
(g2
g3
Ntp1486
Rp1487
(dp1488
g7
I1
sg8
(lp1489
S'76123484'
p1490
aS'43902015'
p1491
aS'64228258'
p1492
aS'77392404'
p1493
aS'53202517'
p1494
aS'66034145'
p1495
aS'57086672'
p1496
aS'22288615'
p1497
aS'76648468'
p1498
aS'89180944'
p1499
aS'33877725'
p1500
aS'16333449'
p1501
aS'10698627'
p1502
aS'61443567'
p1503
aS'17092717'
p1504
aS'28358060'
p1505
aS'94930277'
p1506
aS'39230359'
p1507
aS'14847953'
p1508
asg29
S'20'
p1509
sg31
g992
sg33
g34
sbag1
(g2
g3
Ntp1510
Rp1511
(dp1512
g7
I0
sg8
(lp1513
g1326
ag1327
ag1328
ag1329
ag1330
ag1331
ag1332
ag1333
ag1334
ag1335
ag1336
ag1337
ag1338
ag1339
ag1340
ag1341
ag1342
ag1343
ag1344
ag1345
asg29
S'20'
p1514
sg31
g1381
sg33
g285
sbag1
(g2
g3
Ntp1515
Rp1516
(dp1517
g7
I0
sg8
(lp1518
g1053
ag1054
ag1055
ag1056
ag1057
ag1058
ag1059
ag1060
ag1061
ag1062
ag1063
ag1064
ag1065
ag1066
ag1067
ag1068
ag1069
ag1070
ag1071
ag1072
ag1073
ag1074
ag1075
ag1076
ag1077
asg29
S'25'
p1519
sg31
g228
sg33
g285
sbag1
(g2
g3
Ntp1520
Rp1521
(dp1522
g7
I1
sg8
(lp1523
g209
ag210
ag211
ag212
ag213
ag214
ag215
ag216
ag217
ag218
ag219
ag220
ag221
ag222
ag223
ag224
ag225
ag226
asg29
g1519
sg31
g228
sg33
g285
sbag1
(g2
g3
Ntp1524
Rp1525
(dp1526
g7
I0
sg8
(lp1527
g397
ag398
ag399
ag400
ag401
ag402
ag403
ag404
ag405
ag406
ag407
ag408
ag409
ag410
ag411
ag412
ag413
ag414
ag415
ag416
ag417
ag418
ag419
ag420
ag421
ag10
ag11
ag12
ag13
ag14
ag15
ag16
ag17
ag18
ag19
ag20
ag21
ag22
ag23
ag24
ag25
ag26
ag27
ag28
asg29
S'44'
p1528
sg31
g32
sg33
g141
sbag1
(g2
g3
Ntp1529
Rp1530
(dp1531
g7
I0
sg8
g302
sg29
g348
sg31
g349
sg33
g141
sbag1
(g2
g3
Ntp1532
Rp1533
(dp1534
g7
I0
sg8
(lp1535
S'64296965'
p1536
aS'78136904'
p1537
aS'8522855'
p1538
aS'41585485'
p1539
aS'18266644'
p1540
aS'5368702'
p1541
aS'20239127'
p1542
aS'5615125'
p1543
aS'44940353'
p1544
aS'14671406'
p1545
aS'91196968'
p1546
aS'77636749'
p1547
aS'54569540'
p1548
aS'96054456'
p1549
aS'65003379'
p1550
aS'39919665'
p1551
aS'59075181'
p1552
aS'59544049'
p1553
aS'31633723'
p1554
aS'7492204'
p1555
aS'11915563'
p1556
aS'58332004'
p1557
aS'14398123'
p1558
aS'91139627'
p1559
aS'84524083'
p1560
aS'94467156'
p1561
aS'38499176'
p1562
aS'3685034'
p1563
aS'99272880'
p1564
aS'10792879'
p1565
aS'51542218'
p1566
aS'38329455'
p1567
aS'79366078'
p1568
aS'78735049'
p1569
aS'63634350'
p1570
aS'51186803'
p1571
aS'58522654'
p1572
aS'42115591'
p1573
aS'56749879'
p1574
aS'84110134'
p1575
aS'54310617'
p1576
aS'10872825'
p1577
aS'46570285'
p1578
aS'22731474'
p1579
aS'23798155'
p1580
aS'20883994'
p1581
aS'47605891'
p1582
aS'77240949'
p1583
aS'31247305'
p1584
aS'36903574'
p1585
aS'41527759'
p1586
aS'72547110'
p1587
aS'94955328'
p1588
aS'58469172'
p1589
aS'76924297'
p1590
aS'74182182'
p1591
aS'17823206'
p1592
aS'39659121'
p1593
aS'49631542'
p1594
aS'20331158'
p1595
aS'34262212'
p1596
aS'14591033'
p1597
aS'24875739'
p1598
aS'63408522'
p1599
aS'97019450'
p1600
aS'27187154'
p1601
aS'61518436'
p1602
aS'97371272'
p1603
aS'81218347'
p1604
aS'79858178'
p1605
aS'32705005'
p1606
aS'23391676'
p1607
aS'55474917'
p1608
aS'82688900'
p1609
aS'69086548'
p1610
aS'63955238'
p1611
aS'34243356'
p1612
aS'37498675'
p1613
aS'47462856'
p1614
aS'89338938'
p1615
aS'9731271'
p1616
aS'56988998'
p1617
aS'28957789'
p1618
aS'39230359'
p1619
asg29
S'84'
p1620
sg31
S'Kansrekenen 2'
p1621
sg33
g141
sbag1
(g2
g3
Ntp1622
Rp1623
(dp1624
g7
I1
sg8
(lp1625
g1472
ag1473
ag1474
ag1475
ag1476
ag1477
ag1478
ag1479
ag1480
ag1481
ag1482
ag1483
asg29
S'20'
p1626
sg31
g1485
sg33
g34
sbag1
(g2
g3
Ntp1627
Rp1628
(dp1629
g7
I1
sg8
(lp1630
S'1048485'
p1631
aS'535689'
p1632
aS'38499176'
p1633
aS'59887191'
p1634
aS'86291592'
p1635
aS'21677389'
p1636
aS'1696500'
p1637
aS'16912993'
p1638
aS'72586808'
p1639
aS'30195935'
p1640
aS'75664412'
p1641
aS'85284256'
p1642
aS'31247305'
p1643
aS'72665524'
p1644
aS'36903574'
p1645
aS'123355'
p1646
aS'3883025'
p1647
aS'4353500'
p1648
aS'25557516'
p1649
aS'7308727'
p1650
asg29
g1174
sg31
g1175
sg33
g285
sbag1
(g2
g3
Ntp1651
Rp1652
(dp1653
g7
I1
sg8
(lp1654
g1490
ag1491
ag1492
ag1493
ag1494
ag1495
ag1496
ag1497
ag1498
ag1499
ag1500
ag1501
ag1502
ag1503
ag1504
ag1505
ag1506
ag1507
ag1508
asg29
g991
sg31
g992
sg33
g285
sbag1
(g2
g3
Ntp1655
Rp1656
(dp1657
g7
I1
sg8
(lp1658
g500
ag501
ag502
ag503
ag504
ag505
ag506
ag507
ag508
ag509
ag510
ag511
ag512
ag513
ag514
ag515
ag516
ag517
asg29
g1211
sg31
g519
sg33
g34
sbag1
(g2
g3
Ntp1659
Rp1660
(dp1661
g7
I2
sg8
g1422
sg29
g1443
sg31
g628
sg33
g141
sbag1
(g2
g3
Ntp1662
Rp1663
(dp1664
g7
I2
sg8
(lp1665
g343
ag344
ag345
ag346
ag347
asg29
g1386
sg31
g349
sg33
g285
sbag1
(g2
g3
Ntp1666
Rp1667
(dp1668
g7
I3
sg8
(lp1669
S'97136582'
p1670
aS'62363761'
p1671
aS'9731271'
p1672
aS'72456780'
p1673
asg29
g1174
sg31
g1175
sg33
g285
sbag1
(g2
g3
Ntp1674
Rp1675
(dp1676
g7
I0
sg8
g1239
sg29
g1271
sg31
g447
sg33
g141
sbag1
(g2
g3
Ntp1677
Rp1678
(dp1679
g7
I1
sg8
g145
sg29
g168
sg31
g169
sg33
g141
sbag1
(g2
g3
Ntp1680
Rp1681
(dp1682
g7
I1
sg8
(lp1683
S'54772132'
p1684
aS'45414528'
p1685
aS'70113753'
p1686
aS'58332004'
p1687
aS'51593625'
p1688
aS'1048485'
p1689
aS'34900967'
p1690
aS'2317551'
p1691
aS'31416266'
p1692
aS'88597745'
p1693
aS'94467156'
p1694
aS'15902055'
p1695
aS'10702778'
p1696
aS'38499176'
p1697
aS'92778619'
p1698
aS'33776961'
p1699
aS'99272880'
p1700
aS'62701040'
p1701
aS'58040377'
p1702
aS'86291592'
p1703
asg29
g283
sg31
g284
sg33
g285
sbag1
(g2
g3
Ntp1704
Rp1705
(dp1706
g7
I0
sg8
(lp1707
g949
ag950
ag951
ag952
ag953
ag954
ag955
ag956
ag957
ag958
ag768
ag769
ag770
ag771
ag772
ag773
ag774
ag775
ag776
ag777
ag290
ag291
ag292
ag293
ag294
ag295
ag296
asg29
S'27'
p1708
sg31
g298
sg33
g141
sbag1
(g2
g3
Ntp1709
Rp1710
(dp1711
g7
I0
sg8
(lp1712
S'13284244'
p1713
aS'42778953'
p1714
aS'63939720'
p1715
aS'34691309'
p1716
aS'77831658'
p1717
aS'86807027'
p1718
aS'7957843'
p1719
aS'19214659'
p1720
aS'63573738'
p1721
aS'37419523'
p1722
aS'40911986'
p1723
aS'14941752'
p1724
aS'48308205'
p1725
aS'72895450'
p1726
aS'6939933'
p1727
asg29
g705
sg31
g706
sg33
g285
sbag1
(g2
g3
Ntp1728
Rp1729
(dp1730
g7
I1
sg8
(lp1731
g971
ag972
ag973
ag974
ag975
ag976
ag977
ag978
ag979
ag980
ag981
ag982
ag983
ag984
ag985
ag986
ag987
ag988
ag989
ag990
ag1490
ag1491
ag1492
ag1493
ag1494
ag1495
ag1496
ag1497
ag1498
ag1499
ag1500
ag1501
ag1502
ag1503
ag1504
ag1505
ag1506
ag1507
ag1508
asg29
S'39'
p1732
sg31
g992
sg33
g141
sbag1
(g2
g3
Ntp1733
Rp1734
(dp1735
g7
I1
sg8
(lp1736
g156
ag157
ag158
ag159
ag160
ag161
ag162
ag163
ag164
ag165
asg29
g861
sg31
g169
sg33
g34
sbag1
(g2
g3
Ntp1737
Rp1738
(dp1739
g7
I1
sg8
g1707
sg29
g1708
sg31
g298
sg33
g141
sbag1
(g2
g3
Ntp1740
Rp1741
(dp1742
g7
I7
sg8
g781
sg29
g782
sg31
g783
sg33
g141
sbag1
(g2
g3
Ntp1743
Rp1744
(dp1745
g7
I0
sg8
(lp1746
g146
ag147
ag148
ag149
ag150
ag151
ag152
ag153
ag154
ag155
asg29
g861
sg31
g169
sg33
g34
sbag1
(g2
g3
Ntp1747
Rp1748
(dp1749
g7
I1
sg8
(lp1750
sg29
g354
sg31
g355
sg33
g285
sbag1
(g2
g3
Ntp1751
Rp1752
(dp1753
g7
I1
sg8
(lp1754
g1396
ag1397
ag1398
ag1399
ag1400
ag1401
ag1402
ag1403
ag1404
ag1405
ag1406
ag1407
ag1408
ag1409
ag1410
ag1411
ag1412
ag1413
ag1414
ag1415
asg29
g627
sg31
g628
sg33
g34
sbag1
(g2
g3
Ntp1755
Rp1756
(dp1757
g7
I1
sg8
(lp1758
g564
ag565
ag566
ag567
ag567
ag568
ag569
ag570
ag571
ag572
ag573
ag574
ag575
ag576
ag577
ag578
ag579
ag579
ag580
ag581
ag582
ag583
ag584
ag585
ag586
ag587
ag588
ag589
ag590
ag591
ag592
ag593
ag594
ag595
ag596
ag597
ag598
ag599
ag600
ag601
asg29
g847
sg31
g204
sg33
g285
sbag1
(g2
g3
Ntp1759
Rp1760
(dp1761
g7
I0
sg8
(lp1762
g1276
ag1277
ag1278
ag1279
ag1280
ag1281
ag1282
ag1283
ag1284
ag1285
ag1286
ag1287
ag1288
ag1289
ag1290
ag1291
ag1292
ag1293
ag1294
ag1295
ag1296
ag1297
ag1298
ag1299
ag1300
ag1301
ag1302
ag1303
ag1304
ag1305
ag1306
ag1307
ag1308
ag1309
ag1310
ag1311
ag1312
ag1313
ag1314
ag1315
ag727
ag728
ag729
ag730
ag731
ag732
ag733
ag734
ag735
ag736
ag737
ag738
ag739
ag740
ag741
ag742
ag743
ag744
ag745
ag746
ag747
ag748
ag749
ag750
ag751
ag752
ag753
ag754
ag755
ag756
ag757
ag758
ag759
ag760
ag761
asg29
S'75'
p1763
sg31
g763
sg33
g141
sbag1
(g2
g3
Ntp1764
Rp1765
(dp1766
g7
I0
sg8
(lp1767
g1109
ag1110
ag1111
ag1112
ag1113
ag1114
ag1115
ag1116
ag1117
ag1118
ag1119
ag1120
ag1121
ag1122
ag1123
ag1124
ag1125
ag1126
ag1127
ag1128
ag1129
ag1130
ag1131
ag1132
ag1133
ag1134
ag1135
ag1136
ag1137
ag1138
ag1139
ag1140
ag1141
ag1142
ag1143
ag1144
ag1145
ag1146
ag1147
ag1148
asg29
g931
sg31
g932
sg33
g34
sbag1
(g2
g3
Ntp1768
Rp1769
(dp1770
g7
I1
sg8
g523
sg29
g602
sg31
g204
sg33
g141
sbag1
(g2
g3
Ntp1771
Rp1772
(dp1773
g7
I0
sg8
(lp1774
g1053
ag1054
ag1055
ag1056
ag1057
ag1058
ag1059
ag1060
ag1061
ag1062
ag1063
ag1064
ag1065
ag1066
ag1067
ag1068
ag1069
ag1070
ag1071
ag1072
ag1073
ag1074
ag1075
ag1076
ag1077
ag209
ag210
ag211
ag212
ag213
ag214
ag215
ag216
ag217
ag218
ag219
ag220
ag221
ag222
ag223
ag224
ag225
ag226
asg29
S'43'
p1775
sg31
g228
sg33
g141
sbag1
(g2
g3
Ntp1776
Rp1777
(dp1778
g7
I8
sg8
g781
sg29
g782
sg31
g783
sg33
g141
sbag1
(g2
g3
Ntp1779
Rp1780
(dp1781
g7
I0
sg8
g1731
sg29
g1732
sg31
g992
sg33
g141
sbag1
(g2
g3
Ntp1782
Rp1783
(dp1784
g7
I0
sg8
g479
sg29
g518
sg31
g519
sg33
g141
sbag1
(g2
g3
Ntp1785
Rp1786
(dp1787
g7
I0
sg8
g632
sg29
g654
sg31
g655
sg33
g141
sbag1
(g2
g3
Ntp1788
Rp1789
(dp1790
g7
I1
sg8
g1535
sg29
g1620
sg31
g1621
sg33
g141
sbag1
(g2
g3
Ntp1791
Rp1792
(dp1793
g7
I1
sg8
(lp1794
g1346
ag1347
ag1348
ag1349
ag1350
ag1351
ag1352
ag1353
ag1354
ag1355
ag1356
ag1357
ag1358
ag1359
ag1360
ag1361
ag1362
ag1363
ag1364
ag1365
asg29
S'20'
p1795
sg31
g1381
sg33
g34
sbag1
(g2
g3
Ntp1796
Rp1797
(dp1798
g7
I2
sg8
(lp1799
g1366
ag1367
ag1368
ag1369
ag1370
ag1371
ag1372
ag1373
ag1374
ag1375
ag1376
ag1377
ag1378
ag1379
asg29
g1795
sg31
g1381
sg33
g34
sbag1
(g2
g3
Ntp1800
Rp1801
(dp1802
g7
I1
sg8
g1182
sg29
g1183
sg31
g722
sg33
g141
sbag1
(g2
g3
Ntp1803
Rp1804
(dp1805
g7
I2
sg8
(lp1806
g1260
ag1261
ag1262
ag1263
ag1264
ag1265
ag1266
ag1267
ag1268
ag1269
ag1270
asg29
g446
sg31
g447
sg33
g34
sbag1
(g2
g3
Ntp1807
Rp1808
(dp1809
g7
I1
sg8
g1422
sg29
g1443
sg31
g628
sg33
g141
sbag1
(g2
g3
Ntp1810
Rp1811
(dp1812
g7
I1
sg8
(lp1813
g323
ag324
ag325
ag326
ag327
ag328
ag329
ag330
ag331
ag332
ag333
ag334
ag335
ag336
ag337
ag338
ag339
ag340
ag341
ag342
asg29
g900
sg31
g349
sg33
g34
sbag1
(g2
g3
Ntp1814
Rp1815
(dp1816
g7
I2
sg8
(lp1817
g1366
ag1367
ag1368
ag1369
ag1370
ag1371
ag1372
ag1373
ag1374
ag1375
ag1376
ag1377
ag1378
ag1379
asg29
g1514
sg31
g1381
sg33
g285
sbag1
(g2
g3
Ntp1818
Rp1819
(dp1820
g7
I1
sg8
(lp1821
g1240
ag1241
ag1242
ag1243
ag1244
ag1245
ag1246
ag1247
ag1248
ag1249
ag1250
ag1251
ag1252
ag1253
ag1254
ag1255
ag1256
ag1257
ag1258
ag1259
asg29
g446
sg31
g447
sg33
g34
sbag1
(g2
g3
Ntp1822
Rp1823
(dp1824
g7
I2
sg8
(lp1825
g1423
ag1424
ag1425
ag1426
ag1427
ag1428
ag1429
ag1430
ag1431
ag1432
ag1433
ag1434
ag1435
ag1436
ag1437
ag1438
ag1439
ag1440
ag1441
ag1442
asg29
g627
sg31
g628
sg33
g34
sbag1
(g2
g3
Ntp1826
Rp1827
(dp1828
g7
I3
sg8
g781
sg29
g782
sg31
g783
sg33
g141
sbag1
(g2
g3
Ntp1829
Rp1830
(dp1831
g7
I1
sg8
(lp1832
g156
ag157
ag158
ag159
ag160
ag161
ag162
ag163
ag164
ag165
asg29
g660
sg31
g169
sg33
g285
sbag1
(g2
g3
Ntp1833
Rp1834
(dp1835
g7
I3
sg8
(lp1836
g1391
asg29
g627
sg31
g628
sg33
g34
sbag1
(g2
g3
Ntp1837
Rp1838
(dp1839
g7
I1
sg8
(lp1840
sg29
g721
sg31
g722
sg33
g34
sbag1
(g2
g3
Ntp1841
Rp1842
(dp1843
g7
I1
sg8
(lp1844
g768
ag769
ag770
ag771
ag772
ag773
ag774
ag775
ag776
ag777
asg29
g711
sg31
g298
sg33
g34
sbag1
(g2
g3
Ntp1845
Rp1846
(dp1847
g7
I2
sg8
(lp1848
S'48678993'
p1849
aS'76661016'
p1850
aS'78821918'
p1851
aS'37770881'
p1852
aS'25106480'
p1853
aS'84449005'
p1854
asg29
g1097
sg31
g1098
sg33
g285
sbag1
(g2
g3
Ntp1855
Rp1856
(dp1857
g7
I0
sg8
(lp1858
g1452
ag1453
ag1454
ag1455
ag1456
ag1457
ag1458
ag1459
ag1460
ag1461
ag1462
ag1463
ag1464
ag1465
ag1466
ag1467
ag1468
ag1469
ag1470
ag1471
asg29
g1626
sg31
g1485
sg33
g34
sbag1
(g2
g3
Ntp1859
Rp1860
(dp1861
g7
I0
sg8
(lp1862
g303
ag304
ag305
ag306
ag307
ag308
ag309
ag310
ag311
ag312
ag313
ag314
ag315
ag316
ag317
ag318
ag319
ag320
ag321
ag322
asg29
g1386
sg31
g349
sg33
g285
sbag1
(g2
g3
Ntp1863
Rp1864
(dp1865
g7
I0
sg8
(lp1866
g949
ag950
ag951
ag952
ag953
ag954
ag955
ag956
ag957
ag958
asg29
g297
sg31
g298
sg33
g285
sbag1
(g2
g3
Ntp1867
Rp1868
(dp1869
g7
I1
sg8
(lp1870
sg29
g937
sg31
g722
sg33
g285
sbag1
(g2
g3
Ntp1871
Rp1872
(dp1873
g7
I2
sg8
(lp1874
g1423
ag1424
ag1425
ag1426
ag1427
ag1428
ag1429
ag1430
ag1431
ag1432
ag1433
ag1434
ag1435
ag1436
ag1437
ag1438
ag1439
ag1440
ag1441
ag1442
asg29
g1048
sg31
g628
sg33
g285
sbag1
(g2
g3
Ntp1875
Rp1876
(dp1877
g7
I5
sg8
g781
sg29
g782
sg31
g783
sg33
g141
sbag1
(g2
g3
Ntp1878
Rp1879
(dp1880
g7
I0
sg8
(lp1881
g665
ag666
ag667
ag668
ag669
ag670
ag671
ag672
ag673
ag674
asg29
g716
sg31
g686
sg33
g285
sbag1
(g2
g3
Ntp1882
Rp1883
(dp1884
g7
I3
sg8
g232
sg29
g283
sg31
g284
sg33
g285
sbag1
(g2
g3
Ntp1885
Rp1886
(dp1887
g7
I0
sg8
(lp1888
g1326
ag1327
ag1328
ag1329
ag1330
ag1331
ag1332
ag1333
ag1334
ag1335
ag1336
ag1337
ag1338
ag1339
ag1340
ag1341
ag1342
ag1343
ag1344
ag1345
asg29
g1795
sg31
g1381
sg33
g34
sbag1
(g2
g3
Ntp1889
Rp1890
(dp1891
g7
I0
sg8
g781
sg29
g782
sg31
g783
sg33
g141
sbag1
(g2
g3
Ntp1892
Rp1893
(dp1894
g7
I0
sg8
(lp1895
g971
ag972
ag973
ag974
ag975
ag976
ag977
ag978
ag979
ag980
ag981
ag982
ag983
ag984
ag985
ag986
ag987
ag988
ag989
ag990
asg29
g1509
sg31
g992
sg33
g34
sbag1
(g2
g3
Ntp1896
Rp1897
(dp1898
g7
I2
sg8
(lp1899
S'47477884'
p1900
aS'77960666'
p1901
aS'63634350'
p1902
aS'44391517'
p1903
aS'86000192'
p1904
aS'56749879'
p1905
aS'53585410'
p1906
aS'26857113'
p1907
aS'44671041'
p1908
aS'63096281'
p1909
aS'88519892'
p1910
aS'85284256'
p1911
aS'2416751'
p1912
aS'36903574'
p1913
aS'64947290'
p1914
aS'85236626'
p1915
aS'20618153'
p1916
aS'23215240'
p1917
aS'37279234'
p1918
aS'62105897'
p1919
asg29
g283
sg31
g284
sg33
g285
sbag1
(g2
g3
Ntp1920
Rp1921
(dp1922
g7
I1
sg8
g781
sg29
g782
sg31
g783
sg33
g141
sbag1
(g2
g3
Ntp1923
Rp1924
(dp1925
g7
I1
sg8
(lp1926
g1346
ag1347
ag1348
ag1349
ag1350
ag1351
ag1352
ag1353
ag1354
ag1355
ag1356
ag1357
ag1358
ag1359
ag1360
ag1361
ag1362
ag1363
ag1364
ag1365
asg29
g1514
sg31
g1381
sg33
g285
sbag1
(g2
g3
Ntp1927
Rp1928
(dp1929
g7
I0
sg8
(lp1930
S'82066165'
p1931
aS'8522855'
p1932
aS'69459473'
p1933
aS'88737765'
p1934
aS'87602030'
p1935
aS'66701209'
p1936
aS'41644639'
p1937
aS'46701583'
p1938
aS'51673172'
p1939
aS'14398123'
p1940
aS'5526560'
p1941
aS'94467156'
p1942
aS'34773179'
p1943
aS'25994016'
p1944
aS'74361881'
p1945
asg29
g1097
sg31
g1098
sg33
g285
sbag1
(g2
g3
Ntp1946
Rp1947
(dp1948
g7
I2
sg8
(lp1949
S'60352393'
p1950
aS'40343779'
p1951
aS'44901052'
p1952
aS'4709948'
p1953
aS'64246605'
p1954
aS'77392404'
p1955
aS'26207525'
p1956
aS'56121590'
p1957
aS'19058315'
p1958
aS'87830198'
p1959
aS'81022997'
p1960
aS'66120270'
p1961
aS'48678993'
p1962
aS'37744525'
p1963
aS'25330192'
p1964
aS'28618400'
p1965
aS'34243356'
p1966
aS'12170832'
p1967
aS'29640619'
p1968
aS'56191333'
p1969
asg29
g1174
sg31
g1175
sg33
g285
sbag1
(g2
g3
Ntp1970
Rp1971
(dp1972
g7
I11
sg8
g781
sg29
g782
sg31
g783
sg33
g141
sba.