(lp0
ccopy_reg
_reconstructor
p1
(cbase
Lessons
p2
c__builtin__
object
p3
Ntp4
Rp5
(dp6
S'sort'
p7
I0
sS'students'
p8
(lp9
S'6709529'
p10
aS'56348773'
p11
aS'51741554'
p12
aS'97135019'
p13
aS'27064249'
p14
aS'70939718'
p15
aS'93361408'
p16
aS'59220392'
p17
aS'5615125'
p18
aS'87602030'
p19
aS'86807027'
p20
aS'96054456'
p21
aS'33760909'
p22
aS'46701583'
p23
aS'3678531'
p24
aS'65978354'
p25
aS'47932106'
p26
aS'26260141'
p27
aS'27298319'
p28
aS'85335143'
p29
aS'4546613'
p30
aS'53139134'
p31
aS'6939933'
p32
aS'38179241'
p33
aS'10149535'
p34
aS'73823548'
p35
aS'15902055'
p36
aS'75585647'
p37
aS'58040377'
p38
aS'16097870'
p39
aS'10792879'
p40
aS'75997788'
p41
aS'88855695'
p42
aS'81155296'
p43
aS'87900893'
p44
aS'78735049'
p45
aS'14303208'
p46
aS'47477884'
p47
aS'44868097'
p48
aS'56872729'
p49
aS'77306636'
p50
aS'63634350'
p51
aS'86000192'
p52
aS'4783858'
p53
aS'75623387'
p54
aS'27925117'
p55
aS'53585410'
p56
aS'46570285'
p57
aS'40141996'
p58
aS'86180471'
p59
aS'79888156'
p60
aS'58253841'
p61
aS'72665524'
p62
aS'82412626'
p63
aS'38296757'
p64
aS'58699305'
p65
aS'37279234'
p66
aS'62105897'
p67
aS'22168693'
p68
aS'65408517'
p69
aS'72526473'
p70
aS'48357272'
p71
aS'80188025'
p72
aS'73302736'
p73
aS'12091019'
p74
aS'14179347'
p75
aS'58469172'
p76
aS'34173695'
p77
aS'64228258'
p78
aS'79167252'
p79
aS'55412918'
p80
aS'74182182'
p81
aS'83415514'
p82
aS'83266686'
p83
aS'94686490'
p84
aS'14591033'
p85
aS'24875739'
p86
aS'78544592'
p87
aS'14816774'
p88
aS'27187154'
p89
aS'31306819'
p90
aS'6913074'
p91
aS'55530367'
p92
aS'64600457'
p93
aS'32705005'
p94
aS'23628642'
p95
aS'6723948'
p96
aS'11593163'
p97
aS'76661016'
p98
aS'45915482'
p99
aS'75446434'
p100
aS'79617364'
p101
aS'56544130'
p102
aS'88752563'
p103
aS'21029457'
p104
aS'58592894'
p105
aS'23565001'
p106
aS'62363761'
p107
aS'78443067'
p108
aS'9731271'
p109
aS'28957789'
p110
aS'61520025'
p111
aS'19717077'
p112
aS'33672995'
p113
aS'10609762'
p114
aS'23658570'
p115
asS'amount'
p116
S'106'
p117
sS'name'
p118
S'Calculus 2'
p119
sS'group_name'
p120
S'hc'
p121
sbag1
(g2
g3
Ntp122
Rp123
(dp124
g7
I1
sg8
(lp125
S'52311353'
p126
aS'42778953'
p127
aS'81385263'
p128
aS'54074680'
p129
aS'62872965'
p130
aS'91196968'
p131
aS'5517869'
p132
aS'90743504'
p133
aS'16011419'
p134
aS'93566383'
p135
aS'670011'
p136
aS'87758823'
p137
aS'48308205'
p138
aS'71839156'
p139
aS'36508571'
p140
aS'10149535'
p141
aS'31416266'
p142
aS'80709893'
p143
aS'38499176'
p144
aS'75005528'
p145
aS'16097870'
p146
aS'96118484'
p147
aS'34588570'
p148
aS'79937969'
p149
aS'36527838'
p150
aS'56872729'
p151
aS'42115591'
p152
aS'68409833'
p153
aS'61060652'
p154
aS'58866007'
p155
aS'3474870'
p156
aS'94955328'
p157
aS'35330349'
p158
aS'80998260'
p159
aS'55412918'
p160
aS'74182182'
p161
aS'4921119'
p162
aS'37399898'
p163
aS'94686490'
p164
aS'14591033'
p165
aS'42196732'
p166
aS'81218347'
p167
aS'77896638'
p168
aS'41578612'
p169
aS'55474917'
p170
aS'79617364'
p171
aS'34243356'
p172
aS'26172512'
p173
aS'16333449'
p174
aS'83210352'
p175
aS'32595335'
p176
aS'66570705'
p177
aS'23565001'
p178
aS'21311067'
p179
asg116
S'54'
p180
sg118
S'Lineaire Algebra'
p181
sg120
g121
sbag1
(g2
g3
Ntp182
Rp183
(dp184
g7
I2
sg8
(lp185
S'13534377'
p186
aS'50184318'
p187
aS'64296965'
p188
aS'42778953'
p189
aS'82689818'
p190
aS'51741554'
p191
aS'97135019'
p192
aS'46052388'
p193
aS'1075391'
p194
aS'45556081'
p195
aS'5517869'
p196
aS'33760909'
p197
aS'64393888'
p198
aS'50143947'
p199
aS'87758823'
p200
aS'31416266'
p201
aS'15902055'
p202
aS'34773179'
p203
aS'62701040'
p204
aS'48601268'
p205
aS'86291592'
p206
aS'22699561'
p207
aS'23547619'
p208
aS'3233378'
p209
aS'1696500'
p210
aS'58522654'
p211
aS'86000192'
p212
aS'4783858'
p213
aS'72577292'
p214
aS'54310617'
p215
aS'13092455'
p216
aS'17575088'
p217
aS'1665980'
p218
aS'96104167'
p219
aS'77240949'
p220
aS'29474737'
p221
aS'7308727'
p222
aS'76123484'
p223
aS'17222374'
p224
aS'35330349'
p225
aS'68601184'
p226
aS'64228258'
p227
aS'57595888'
p228
aS'21964491'
p229
aS'42171678'
p230
aS'43027916'
p231
aS'28357474'
p232
aS'42196732'
p233
aS'77896638'
p234
aS'60312776'
p235
aS'26406342'
p236
aS'9332762'
p237
aS'29640619'
p238
aS'61443567'
p239
aS'73980360'
p240
aS'65960683'
p241
aS'37770881'
p242
aS'25106480'
p243
aS'53107172'
p244
aS'24277163'
p245
aS'75521763'
p246
asg116
S'61'
p247
sg118
S'Collectieve Intelligentie'
p248
sg120
g121
sbag1
(g2
g3
Ntp249
Rp250
(dp251
g7
I0
sg8
(lp252
S'52311353'
p253
aS'64296965'
p254
aS'22871048'
p255
aS'18266644'
p256
aS'88737765'
p257
aS'36785409'
p258
aS'77831658'
p259
aS'56815156'
p260
aS'60661905'
p261
aS'13718298'
p262
aS'78822885'
p263
aS'85335143'
p264
aS'18477924'
p265
aS'14637758'
p266
aS'58480929'
p267
aS'34900967'
p268
aS'16097870'
p269
aS'75997788'
p270
aS'51542218'
p271
aS'62613937'
p272
aS'97838175'
p273
aS'42115591'
p274
aS'72586808'
p275
aS'23798155'
p276
aS'48357272'
p277
aS'80188025'
p278
aS'73302736'
p279
aS'94955328'
p280
aS'83443653'
p281
aS'4921119'
p282
aS'82854435'
p283
aS'43027916'
p284
aS'97019450'
p285
aS'65318664'
p286
aS'87830198'
p287
aS'70193386'
p288
aS'57086672'
p289
aS'41578612'
p290
aS'48678993'
p291
aS'5595824'
p292
aS'56544130'
p293
aS'78821918'
p294
aS'34243356'
p295
aS'5085194'
p296
aS'23565001'
p297
aS'73350019'
p298
aS'72456780'
p299
aS'33672995'
p300
aS'23658570'
p301
asg116
S'49'
p302
sg118
S'Analysemethoden en -technieken'
p303
sg120
g121
sbag1
(g2
g3
Ntp304
Rp305
(dp306
g7
I0
sg8
(lp307
S'81200278'
p308
aS'77831658'
p309
aS'56815156'
p310
aS'22826928'
p311
aS'96054456'
p312
aS'3168419'
p313
aS'59544049'
p314
aS'33930505'
p315
aS'74131924'
p316
aS'85335143'
p317
aS'5298748'
p318
aS'28359697'
p319
aS'43680781'
p320
aS'247918'
p321
aS'54026378'
p322
aS'11068043'
p323
aS'29526540'
p324
aS'44868097'
p325
aS'58522654'
p326
aS'24613625'
p327
aS'56749879'
p328
aS'22731474'
p329
aS'30195935'
p330
aS'20883994'
p331
aS'7308727'
p332
aS'88176729'
p333
aS'73236988'
p334
aS'89985072'
p335
aS'4568018'
p336
aS'53202517'
p337
aS'21964491'
p338
aS'14591033'
p339
aS'14816774'
p340
aS'42196732'
p341
aS'6913074'
p342
aS'66120270'
p343
aS'64600457'
p344
aS'6723948'
p345
aS'79617364'
p346
aS'33877725'
p347
aS'21029457'
p348
aS'70878567'
p349
aS'96453361'
p350
aS'15051051'
p351
aS'30050930'
p352
asg116
S'45'
p353
sg118
S'Bioinformatica'
p354
sg120
g121
sbag1
(g2
g3
Ntp355
Rp356
(dp357
g7
I2
sg8
g307
sg116
g353
sg118
g354
sg120
g121
sbag1
(g2
g3
Ntp358
Rp359
(dp360
g7
I1
sg8
g307
sg116
g353
sg118
g354
sg120
g121
sbag1
(g2
g3
Ntp361
Rp362
(dp363
g7
I0
sg8
(lp364
S'13218321'
p365
aS'36748818'
p366
aS'50184318'
p367
aS'27916487'
p368
aS'5517869'
p369
aS'96082155'
p370
aS'68315599'
p371
aS'1181560'
p372
aS'66621166'
p373
aS'85335143'
p374
aS'49219163'
p375
aS'78243495'
p376
aS'58332004'
p377
aS'77376714'
p378
aS'33776961'
p379
aS'1766560'
p380
aS'43680781'
p381
aS'75997788'
p382
aS'27241113'
p383
aS'29526540'
p384
aS'36527838'
p385
aS'13911001'
p386
aS'99283252'
p387
aS'51650744'
p388
aS'46570285'
p389
aS'30658799'
p390
aS'3883025'
p391
aS'58699305'
p392
aS'18144425'
p393
aS'17222374'
p394
aS'4709948'
p395
aS'83415514'
p396
aS'49631542'
p397
aS'83266686'
p398
aS'78544592'
p399
aS'42171678'
p400
aS'14309255'
p401
aS'63111000'
p402
aS'41489515'
p403
aS'59111489'
p404
aS'64600457'
p405
aS'78821918'
p406
aS'89180944'
p407
aS'11741347'
p408
aS'58592894'
p409
aS'11996292'
p410
aS'47462856'
p411
aS'48198668'
p412
aS'70072978'
p413
aS'78443067'
p414
aS'15051051'
p415
aS'84449005'
p416
aS'24277163'
p417
aS'75521763'
p418
asg116
S'54'
p419
sg118
S'Moderne Databases'
p420
sg120
g121
sbag1
(g2
g3
Ntp421
Rp422
(dp423
g7
I1
sg8
(lp424
S'82066165'
p425
aS'13284244'
p426
aS'42778953'
p427
aS'81385263'
p428
aS'44151631'
p429
aS'40791377'
p430
aS'5368702'
p431
aS'86988337'
p432
aS'12077419'
p433
aS'7957843'
p434
aS'15911353'
p435
aS'66701209'
p436
aS'41644639'
p437
aS'51673172'
p438
aS'50143947'
p439
aS'68315599'
p440
aS'75599734'
p441
aS'79033175'
p442
aS'54772132'
p443
aS'65852230'
p444
aS'11915563'
p445
aS'48308205'
p446
aS'72895450'
p447
aS'14383795'
p448
aS'51472074'
p449
aS'71839156'
p450
aS'49683101'
p451
aS'535689'
p452
aS'2317551'
p453
aS'84524083'
p454
aS'38499176'
p455
aS'11459236'
p456
aS'1766560'
p457
aS'99272880'
p458
aS'43689934'
p459
aS'10792879'
p460
aS'88855695'
p461
aS'47260040'
p462
aS'86291592'
p463
aS'1695839'
p464
aS'14303208'
p465
aS'11068043'
p466
aS'25994016'
p467
aS'13911001'
p468
ag468
aS'88596522'
p469
aS'74361881'
p470
aS'76802764'
p471
aS'63634350'
p472
aS'58522654'
p473
aS'44391517'
p474
aS'24613625'
p475
aS'53585410'
p476
aS'64418623'
p477
aS'30658799'
p478
aS'75664412'
p479
aS'3407554'
p480
ag480
aS'1665980'
p481
aS'72665524'
p482
aS'34872117'
p483
aS'27950803'
p484
aS'23215240'
p485
aS'92665222'
p486
aS'73236988'
p487
aS'42297781'
p488
aS'79167252'
p489
aS'89985072'
p490
aS'95631564'
p491
aS'83266686'
p492
aS'4568018'
p493
aS'53202517'
p494
aS'57595888'
p495
aS'9067939'
p496
aS'14309255'
p497
aS'75759231'
p498
aS'27187154'
p499
aS'32204977'
p500
aS'8464817'
p501
aS'55103073'
p502
aS'77896638'
p503
aS'60312776'
p504
aS'94687383'
p505
aS'6723948'
p506
aS'76661016'
p507
aS'5595824'
p508
aS'80135353'
p509
aS'26406342'
p510
aS'39459642'
p511
aS'34243356'
p512
aS'88752563'
p513
aS'11741347'
p514
aS'34110913'
p515
aS'46989508'
p516
aS'65675896'
p517
aS'14138904'
p518
aS'91250534'
p519
aS'88636924'
p520
aS'5085194'
p521
aS'98105190'
p522
aS'95007221'
p523
aS'31194811'
p524
aS'5892092'
p525
aS'65960683'
p526
aS'37770881'
p527
aS'2079771'
p528
aS'72796858'
p529
aS'48503689'
p530
aS'52715680'
p531
asg116
S'109'
p532
sg118
S'Compilerbouw'
p533
sg120
g121
sbag1
(g2
g3
Ntp534
Rp535
(dp536
g7
I0
sg8
(lp537
S'22871048'
p538
aS'86807027'
p539
aS'57467488'
p540
aS'59075181'
p541
aS'14941752'
p542
aS'71839156'
p543
aS'87210640'
p544
aS'45660925'
p545
aS'66122625'
p546
aS'75997788'
p547
aS'97417002'
p548
aS'31897288'
p549
aS'1696500'
p550
aS'4783858'
p551
aS'56749879'
p552
aS'61060652'
p553
aS'36903574'
p554
aS'37110913'
p555
aS'4353500'
p556
aS'76393508'
p557
aS'48357272'
p558
aS'44901052'
p559
aS'83443653'
p560
aS'92977271'
p561
aS'19858730'
p562
aS'20331158'
p563
aS'4568018'
p564
aS'14591033'
p565
aS'42171678'
p566
aS'14816774'
p567
aS'20830477'
p568
aS'97019450'
p569
aS'81218347'
p570
aS'79879876'
p571
aS'58736785'
p572
aS'11996292'
p573
aS'14138904'
p574
aS'22323043'
p575
aS'98105190'
p576
aS'13658563'
p577
aS'53775014'
p578
aS'53107172'
p579
aS'75521763'
p580
aS'94930277'
p581
asg116
S'44'
p582
sg118
S'Heuristieken 1'
p583
sg120
g121
sbag1
(g2
g3
Ntp584
Rp585
(dp586
g7
I0
sg8
(lp587
S'64296965'
p588
aS'78136904'
p589
aS'8522855'
p590
aS'41585485'
p591
aS'18266644'
p592
aS'5368702'
p593
aS'20239127'
p594
aS'5615125'
p595
aS'44940353'
p596
aS'14671406'
p597
aS'91196968'
p598
aS'77636749'
p599
aS'54569540'
p600
aS'96054456'
p601
aS'65003379'
p602
aS'39919665'
p603
aS'59075181'
p604
aS'59544049'
p605
aS'31633723'
p606
aS'7492204'
p607
aS'11915563'
p608
aS'58332004'
p609
aS'14398123'
p610
aS'91139627'
p611
aS'84524083'
p612
aS'94467156'
p613
aS'38499176'
p614
aS'3685034'
p615
aS'99272880'
p616
aS'10792879'
p617
aS'51542218'
p618
aS'38329455'
p619
aS'79366078'
p620
aS'78735049'
p621
aS'63634350'
p622
aS'51186803'
p623
aS'58522654'
p624
aS'42115591'
p625
aS'56749879'
p626
aS'84110134'
p627
aS'54310617'
p628
aS'10872825'
p629
aS'46570285'
p630
aS'22731474'
p631
aS'23798155'
p632
aS'20883994'
p633
aS'47605891'
p634
aS'77240949'
p635
aS'31247305'
p636
aS'36903574'
p637
aS'41527759'
p638
aS'72547110'
p639
aS'94955328'
p640
aS'58469172'
p641
aS'76924297'
p642
aS'74182182'
p643
aS'17823206'
p644
aS'39659121'
p645
aS'49631542'
p646
aS'20331158'
p647
aS'34262212'
p648
aS'14591033'
p649
aS'24875739'
p650
aS'63408522'
p651
aS'97019450'
p652
aS'27187154'
p653
aS'61518436'
p654
aS'97371272'
p655
aS'81218347'
p656
aS'79858178'
p657
aS'32705005'
p658
aS'23391676'
p659
aS'55474917'
p660
aS'82688900'
p661
aS'69086548'
p662
aS'63955238'
p663
aS'34243356'
p664
aS'37498675'
p665
aS'47462856'
p666
aS'89338938'
p667
aS'9731271'
p668
aS'56988998'
p669
aS'28957789'
p670
aS'39230359'
p671
asg116
S'84'
p672
sg118
S'Kansrekenen 2'
p673
sg120
g121
sbag1
(g2
g3
Ntp674
Rp675
(dp676
g7
I1
sg8
g185
sg116
g247
sg118
g248
sg120
g121
sbag1
(g2
g3
Ntp677
Rp678
(dp679
g7
I0
sg8
g424
sg116
g532
sg118
g533
sg120
g121
sbag1
(g2
g3
Ntp680
Rp681
(dp682
g7
I0
sg8
(lp683
S'64296965'
p684
aS'82689818'
p685
aS'23257088'
p686
aS'5517869'
p687
aS'62736669'
p688
aS'86988337'
p689
aS'96054456'
p690
aS'670011'
p691
aS'57467488'
p692
aS'47932106'
p693
aS'3168419'
p694
aS'4529208'
p695
aS'59397895'
p696
aS'13132925'
p697
aS'58332004'
p698
aS'5526560'
p699
aS'73823548'
p700
aS'54540997'
p701
aS'75005528'
p702
aS'58083680'
p703
aS'51542218'
p704
aS'247918'
p705
aS'29526540'
p706
aS'47477884'
p707
aS'77960666'
p708
aS'40434933'
p709
aS'56872729'
p710
aS'56749879'
p711
aS'13092455'
p712
aS'40141996'
p713
aS'86180471'
p714
aS'34872117'
p715
aS'64947290'
p716
aS'25077484'
p717
aS'27123462'
p718
aS'60352393'
p719
aS'76123484'
p720
aS'43902015'
p721
aS'17222374'
p722
aS'52552718'
p723
aS'12091019'
p724
aS'91527663'
p725
aS'26207525'
p726
aS'56121590'
p727
aS'4921119'
p728
aS'49631542'
p729
aS'94686490'
p730
aS'83869542'
p731
aS'43027916'
p732
aS'14816774'
p733
aS'90474003'
p734
aS'42196732'
p735
aS'15187217'
p736
aS'51566595'
p737
aS'77896638'
p738
aS'26406342'
p739
aS'39459642'
p740
aS'78821918'
p741
aS'88752563'
p742
aS'58592894'
p743
aS'11996292'
p744
aS'46989508'
p745
aS'29640619'
p746
aS'56191333'
p747
aS'37701751'
p748
aS'17092717'
p749
aS'5085194'
p750
aS'70072978'
p751
aS'72796858'
p752
aS'24277163'
p753
aS'72456780'
p754
aS'23658570'
p755
asg116
S'72'
p756
sg118
S'Databases 2'
p757
sg120
g121
sbag1
(g2
g3
Ntp758
Rp759
(dp760
g7
I0
sg8
g125
sg116
g180
sg118
g181
sg120
g121
sbag1
(g2
g3
Ntp761
Rp762
(dp763
g7
I0
sg8
g185
sg116
g247
sg118
g248
sg120
g121
sbag1
(g2
g3
Ntp764
Rp765
(dp766
g7
I1
sg8
(lp767
S'70844780'
p768
aS'78136904'
p769
aS'22871048'
p770
aS'96554914'
p771
aS'20239127'
p772
aS'51415617'
p773
aS'36785409'
p774
aS'49922855'
p775
aS'86988337'
p776
aS'54569540'
p777
aS'22826928'
p778
aS'60661905'
p779
aS'13718298'
p780
aS'27370083'
p781
aS'20095994'
p782
aS'99453514'
p783
aS'5298748'
p784
aS'84524083'
p785
aS'92778619'
p786
aS'3685034'
p787
aS'33776961'
p788
aS'43680781'
p789
aS'77960666'
p790
aS'13092455'
p791
aS'27950803'
p792
aS'27805666'
p793
aS'37110913'
p794
aS'32044893'
p795
aS'38296757'
p796
aS'60352393'
p797
aS'4709948'
p798
aS'77392404'
p799
aS'37399898'
p800
aS'36213792'
p801
aS'82390428'
p802
aS'87830198'
p803
aS'90474003'
p804
aS'99975346'
p805
aS'70193386'
p806
aS'6913074'
p807
aS'61518436'
p808
aS'57086672'
p809
aS'41578612'
p810
aS'42406214'
p811
aS'68286356'
p812
aS'59753700'
p813
aS'13658563'
p814
aS'84449005'
p815
aS'24277163'
p816
aS'51052738'
p817
aS'52715680'
p818
asg116
S'51'
p819
sg118
S'Reflectie op de digitale cultuur'
p820
sg120
g121
sbag1
(g2
g3
Ntp821
Rp822
(dp823
g7
I1
sg8
g587
sg116
g672
sg118
g673
sg120
g121
sbag1
(g2
g3
Ntp824
Rp825
(dp826
g7
I0
sg8
g767
sg116
g819
sg118
g820
sg120
g121
sbag1
(g2
g3
Ntp827
Rp828
(dp829
g7
I0
sg8
(lp830
S'52311353'
p831
aS'70015932'
p832
aS'82872148'
p833
aS'22871048'
p834
aS'96554914'
p835
aS'14671406'
p836
aS'13718298'
p837
aS'27582862'
p838
aS'58565406'
p839
aS'3727435'
p840
aS'50143947'
p841
aS'26260141'
p842
aS'75599734'
p843
aS'31103066'
p844
aS'59544049'
p845
aS'31633723'
p846
aS'37830626'
p847
aS'11915563'
p848
aS'78243495'
p849
aS'4546613'
p850
aS'51593625'
p851
aS'1048485'
p852
aS'43460038'
p853
aS'62356458'
p854
aS'77376714'
p855
aS'94467156'
p856
aS'80709893'
p857
aS'48601268'
p858
aS'54026378'
p859
aS'11068043'
p860
aS'3233378'
p861
aS'44868097'
p862
aS'21095566'
p863
aS'42115591'
p864
aS'68409833'
p865
aS'99283252'
p866
aS'4783858'
p867
aS'84110134'
p868
aS'44671041'
p869
aS'61060652'
p870
aS'5976174'
p871
aS'31247305'
p872
aS'27950803'
p873
aS'62105897'
p874
aS'41527759'
p875
aS'65408517'
p876
aS'88176729'
p877
aS'40343779'
p878
aS'52552718'
p879
aS'48357272'
p880
aS'73302736'
p881
aS'73236988'
p882
aS'14072826'
p883
aS'9287708'
p884
aS'89985072'
p885
aS'95631564'
p886
aS'4568018'
p887
aS'14309255'
p888
aS'65318664'
p889
aS'28357474'
p890
aS'60312776'
p891
aS'55474917'
p892
aS'37744525'
p893
aS'45915482'
p894
aS'89180944'
p895
aS'33877725'
p896
aS'83210352'
p897
aS'29640619'
p898
aS'89338938'
p899
aS'41153310'
p900
aS'22323043'
p901
aS'78443067'
p902
aS'25106480'
p903
aS'58074656'
p904
aS'52715680'
p905
asg116
S'75'
p906
sg118
S'Software engineering'
p907
sg120
g121
sbag1
(g2
g3
Ntp908
Rp909
(dp910
g7
I0
sg8
(lp911
g831
ag832
ag833
ag834
ag835
ag836
ag837
ag838
ag839
ag840
ag841
ag842
ag843
ag844
ag845
ag846
ag847
ag848
ag849
ag850
ag851
ag852
ag853
ag854
ag855
ag856
ag857
ag858
ag859
ag860
ag861
ag862
ag863
ag864
ag865
ag866
ag867
ag868
ag869
ag870
asg116
S'40'
p912
sg118
g907
sg120
S'wc'
p913
sbag1
(g2
g3
Ntp914
Rp915
(dp916
g7
I1
sg8
(lp917
S'36903574'
p918
aS'64947290'
p919
aS'3474870'
p920
aS'41527759'
p921
aS'43902015'
p922
aS'40343779'
p923
aS'91527663'
p924
aS'64554442'
p925
aS'21964491'
p926
aS'51566595'
p927
aS'51509565'
p928
aS'23983476'
p929
aS'3707829'
p930
aS'58592894'
p931
aS'96453361'
p932
aS'44828429'
p933
aS'23652927'
p934
aS'52715680'
p935
asg116
S'25'
p936
sg118
S'Algoritmen en complexiteit'
p937
sg120
S'pr'
p938
sbag1
(g2
g3
Ntp939
Rp940
(dp941
g7
I1
sg8
(lp942
S'81385263'
p943
aS'81200278'
p944
aS'5368702'
p945
aS'19214659'
p946
aS'93566383'
p947
aS'4546613'
p948
aS'38179241'
p949
aS'69634191'
p950
aS'81155296'
p951
aS'21677389'
p952
aS'23547619'
p953
aS'34765676'
p954
aS'76924297'
p955
aS'37399898'
p956
aS'66034145'
p957
aS'28055464'
p958
aS'76661016'
p959
aS'3707829'
p960
aS'2550487'
p961
aS'20374340'
p962
aS'37701751'
p963
aS'65675896'
p964
aS'64768422'
p965
aS'44828429'
p966
aS'14847953'
p967
asg116
S'25'
p968
sg118
S'Interactie-ontwerp'
p969
sg120
g121
sbag1
(g2
g3
Ntp970
Rp971
(dp972
g7
I0
sg8
(lp973
g831
ag832
ag833
ag834
ag835
ag836
ag837
ag838
ag839
ag840
ag841
ag842
ag843
ag844
ag845
ag846
ag847
ag848
ag849
ag850
ag851
ag852
ag853
ag854
ag855
ag856
ag857
ag858
ag859
ag860
ag861
ag862
ag863
ag864
ag865
ag866
ag867
ag868
ag869
ag870
asg116
S'40'
p974
sg118
g907
sg120
g938
sbag1
(g2
g3
Ntp975
Rp976
(dp977
g7
I1
sg8
(lp978
g871
ag872
ag873
ag874
ag875
ag876
ag877
ag878
ag879
ag880
ag881
ag882
ag883
ag884
ag885
ag886
ag887
ag888
ag889
ag890
ag891
ag892
ag893
ag894
ag895
ag896
ag897
ag898
ag899
ag900
ag901
ag902
ag903
ag904
ag905
asg116
g912
sg118
g907
sg120
g913
sbag1
(g2
g3
Ntp979
Rp980
(dp981
g7
I0
sg8
(lp982
S'22871048'
p983
aS'62872965'
p984
aS'5517869'
p985
aS'74131924'
p986
aS'27298319'
p987
aS'11915563'
p988
aS'70113753'
p989
aS'36508571'
p990
aS'62356458'
p991
aS'16097870'
p992
aS'54026378'
p993
aS'68409833'
p994
aS'37110913'
p995
aS'61611295'
p996
aS'52552718'
p997
aS'44901052'
p998
aS'19858730'
p999
aS'51566595'
p1000
aS'88627897'
p1001
aS'39459642'
p1002
aS'34806836'
p1003
aS'72796858'
p1004
asg116
S'22'
p1005
sg118
S'Autonomous Agents 2'
p1006
sg120
g121
sbag1
(g2
g3
Ntp1007
Rp1008
(dp1009
g7
I0
sg8
(lp1010
S'82689818'
p1011
aS'81385263'
p1012
aS'78136904'
p1013
aS'8522855'
p1014
aS'41585485'
p1015
aS'19540225'
p1016
aS'14671406'
p1017
aS'86988337'
p1018
aS'12077419'
p1019
aS'46701583'
p1020
aS'66433883'
p1021
aS'50143947'
p1022
aS'57467488'
p1023
aS'26260141'
p1024
aS'27298319'
p1025
aS'72895450'
p1026
aS'77376714'
p1027
aS'15902055'
p1028
aS'88596522'
p1029
aS'21095566'
p1030
aS'53585410'
p1031
aS'67817269'
p1032
aS'34765676'
p1033
aS'1665980'
p1034
aS'5976174'
p1035
ag918
ag919
ag920
ag921
ag922
ag923
ag924
ag925
ag926
ag927
ag928
ag929
ag930
ag931
ag932
ag933
ag934
ag935
asg116
S'43'
p1036
sg118
g937
sg120
g121
sbag1
(g2
g3
Ntp1037
Rp1038
(dp1039
g7
I0
sg8
(lp1040
g1011
ag1012
ag1013
ag1014
ag1015
ag1016
ag1017
ag1018
ag1019
ag1020
ag1021
ag1022
ag1023
ag1024
ag1025
ag1026
ag1027
ag1028
ag1029
ag1030
ag1031
ag1032
ag1033
ag1034
ag1035
asg116
g936
sg118
g937
sg120
g938
sbag1
(g2
g3
Ntp1041
Rp1042
(dp1043
g7
I1
sg8
(lp1044
g724
ag725
ag726
ag727
ag728
ag729
ag730
ag731
ag732
ag733
ag734
ag735
ag736
ag737
ag738
ag739
ag740
ag741
ag742
ag743
ag744
ag745
ag746
ag747
ag748
ag749
ag750
ag751
ag752
ag753
ag754
ag755
asg116
S'40'
p1045
sg118
g757
sg120
g913
sbag1
(g2
g3
Ntp1046
Rp1047
(dp1048
g7
I0
sg8
(lp1049
sg116
S'21'
p1050
sg118
S'Informatie- en organisatieontwerp'
p1051
sg120
g121
sbag1
(g2
g3
Ntp1052
Rp1053
(dp1054
g7
I1
sg8
g982
sg116
g1005
sg118
g1006
sg120
g121
sbag1
(g2
g3
Ntp1055
Rp1056
(dp1057
g7
I0
sg8
(lp1058
g1011
ag1012
ag1013
ag1014
ag1015
ag1016
ag1017
ag1018
ag1019
ag1020
ag1021
ag1022
ag1023
ag1024
ag1025
ag1026
ag1027
ag1028
ag1029
ag1030
ag1031
ag1032
ag1033
ag1034
ag1035
asg116
S'25'
p1059
sg118
g937
sg120
g913
sbag1
(g2
g3
Ntp1060
Rp1061
(dp1062
g7
I2
sg8
(lp1063
g90
ag91
ag92
ag93
ag94
ag95
ag96
ag97
ag98
ag99
ag100
ag101
ag102
ag103
ag104
ag105
ag106
ag107
ag108
ag109
ag110
ag111
ag112
ag113
ag114
ag115
asg116
S'40'
p1064
sg118
g119
sg120
g913
sbag1
(g2
g3
Ntp1065
Rp1066
(dp1067
g7
I1
sg8
(lp1068
S'70015932'
p1069
aS'82689818'
p1070
aS'45556081'
p1071
aS'29718115'
p1072
aS'49683101'
p1073
aS'43460038'
p1074
aS'10149535'
p1075
aS'13798030'
p1076
aS'40434933'
p1077
aS'72683344'
p1078
aS'27925117'
p1079
aS'72577292'
p1080
aS'23798155'
p1081
aS'58866007'
p1082
aS'34872117'
p1083
aS'83266686'
p1084
aS'20331158'
p1085
aS'28618400'
p1086
aS'89180944'
p1087
aS'14138904'
p1088
aS'59289233'
p1089
asg116
S'21'
p1090
sg118
S'Architectuur en computerorganisatie'
p1091
sg120
g121
sbag1
(g2
g3
Ntp1092
Rp1093
(dp1094
g7
I1
sg8
g1049
sg116
g1050
sg118
g1051
sg120
g121
sbag1
(g2
g3
Ntp1095
Rp1096
(dp1097
g7
I0
sg8
(lp1098
g10
ag11
ag12
ag13
ag14
ag15
ag16
ag17
ag18
ag19
ag20
ag21
ag22
ag23
ag24
ag25
ag26
ag27
ag28
ag29
ag30
ag31
ag32
ag33
ag34
ag35
ag36
ag37
ag38
ag39
ag40
ag41
ag42
ag43
ag44
ag45
ag46
ag47
ag48
ag49
asg116
g1064
sg118
g119
sg120
g913
sbag1
(g2
g3
Ntp1099
Rp1100
(dp1101
g7
I0
sg8
(lp1102
S'76903244'
p1103
aS'53512831'
p1104
aS'27064249'
p1105
aS'69459473'
p1106
aS'5615125'
p1107
aS'24891081'
p1108
aS'67073567'
p1109
aS'78243495'
p1110
aS'72895450'
p1111
aS'49908313'
p1112
aS'43460038'
p1113
aS'41790793'
p1114
aS'6249823'
p1115
aS'14303208'
p1116
aS'40434933'
p1117
aS'72577292'
p1118
aS'1137946'
p1119
aS'2416751'
p1120
aS'20618153'
p1121
aS'3474870'
p1122
aS'76123484'
p1123
aS'43902015'
p1124
aS'64228258'
p1125
aS'77392404'
p1126
aS'53202517'
p1127
aS'66034145'
p1128
aS'57086672'
p1129
aS'22288615'
p1130
aS'76648468'
p1131
aS'89180944'
p1132
aS'33877725'
p1133
aS'16333449'
p1134
aS'10698627'
p1135
aS'61443567'
p1136
aS'17092717'
p1137
aS'28358060'
p1138
aS'94930277'
p1139
aS'39230359'
p1140
aS'14847953'
p1141
asg116
S'39'
p1142
sg118
S'Webprogrammeren en databases'
p1143
sg120
g121
sbag1
(g2
g3
Ntp1144
Rp1145
(dp1146
g7
I0
sg8
(lp1147
g684
ag685
ag686
ag687
ag688
ag689
ag690
ag691
ag692
ag693
ag694
ag695
ag696
ag697
ag698
ag699
ag700
ag701
ag702
ag703
ag704
ag705
ag706
ag707
ag708
ag709
ag710
ag711
ag712
ag713
ag714
ag715
ag716
ag717
ag718
ag719
ag720
ag721
ag722
ag723
asg116
g1045
sg118
g757
sg120
g913
sbag1
(g2
g3
Ntp1148
Rp1149
(dp1150
g7
I1
sg8
(lp1151
S'36785409'
p1152
aS'77636749'
p1153
aS'12077419'
p1154
aS'58565406'
p1155
aS'76487754'
p1156
aS'68315599'
p1157
aS'85335143'
p1158
aS'93041523'
p1159
aS'48308205'
p1160
aS'7106649'
p1161
aS'77264363'
p1162
aS'14383795'
p1163
aS'10149535'
p1164
aS'21192048'
p1165
aS'92496780'
p1166
aS'6249823'
p1167
aS'43680781'
p1168
aS'23547619'
p1169
aS'40434933'
p1170
aS'70336464'
p1171
aS'4697362'
p1172
aS'75664412'
p1173
aS'37110913'
p1174
aS'44901052'
p1175
aS'47982619'
p1176
aS'14309255'
p1177
aS'97371272'
p1178
aS'32204977'
p1179
aS'41578612'
p1180
aS'69086548'
p1181
aS'26406342'
p1182
aS'9332762'
p1183
aS'11996292'
p1184
aS'89338938'
p1185
aS'22323043'
p1186
aS'12430748'
p1187
aS'31194811'
p1188
aS'75521763'
p1189
asg116
S'38'
p1190
sg118
S'Technology for games'
p1191
sg120
g121
sbag1
(g2
g3
Ntp1192
Rp1193
(dp1194
g7
I0
sg8
g1068
sg116
g1090
sg118
g1091
sg120
g121
sbag1
(g2
g3
Ntp1195
Rp1196
(dp1197
g7
I0
sg8
(lp1198
g425
ag426
ag427
ag428
ag429
ag430
ag431
ag432
ag433
ag434
ag435
ag436
ag437
ag438
ag439
ag440
ag441
ag442
ag443
ag444
ag445
ag446
ag447
ag448
ag449
ag450
ag451
ag452
ag453
ag454
ag455
ag456
ag457
ag458
ag459
ag460
ag461
ag462
ag463
ag464
asg116
S'40'
p1199
sg118
g533
sg120
g913
sbag1
(g2
g3
Ntp1200
Rp1201
(dp1202
g7
I0
sg8
(lp1203
g425
ag426
ag427
ag428
ag429
ag430
ag431
ag432
ag433
ag434
ag435
ag436
ag437
ag438
ag439
ag440
ag441
ag442
ag443
ag444
ag445
ag446
ag447
ag448
ag449
ag450
ag451
ag452
ag453
ag454
ag455
ag456
ag457
ag458
ag459
ag460
ag461
ag462
ag463
ag464
asg116
S'40'
p1204
sg118
g533
sg120
g938
sbag1
(g2
g3
Ntp1205
Rp1206
(dp1207
g7
I0
sg8
g1151
sg116
g1190
sg118
g1191
sg120
g121
sbag1
(g2
g3
Ntp1208
Rp1209
(dp1210
g7
I2
sg8
(lp1211
g503
ag504
ag505
ag506
ag507
ag508
ag509
ag510
ag511
ag512
ag513
ag514
ag515
ag516
ag517
ag518
ag519
ag520
ag521
ag522
ag523
ag524
ag525
ag526
ag527
ag528
ag529
ag530
ag531
asg116
g1199
sg118
g533
sg120
g913
sbag1
(g2
g3
Ntp1212
Rp1213
(dp1214
g7
I1
sg8
(lp1215
g50
ag51
ag52
ag53
ag54
ag55
ag56
ag57
ag58
ag59
ag60
ag61
ag62
ag63
ag64
ag65
ag66
ag67
ag68
ag69
ag70
ag71
ag72
ag73
ag74
ag75
ag76
ag77
ag78
ag79
ag80
ag81
ag82
ag83
ag84
ag85
ag86
ag87
ag88
ag89
asg116
g1064
sg118
g119
sg120
g913
sbag1
(g2
g3
Ntp1216
Rp1217
(dp1218
g7
I1
sg8
(lp1219
g465
ag466
ag467
ag468
ag468
ag469
ag470
ag471
ag472
ag473
ag474
ag475
ag476
ag477
ag478
ag479
ag480
ag480
ag481
ag482
ag483
ag484
ag485
ag486
ag487
ag488
ag489
ag490
ag491
ag492
ag493
ag494
ag495
ag496
ag497
ag498
ag499
ag500
ag501
ag502
asg116
g1204
sg118
g533
sg120
g938
sbag1
(g2
g3
Ntp1220
Rp1221
(dp1222
g7
I0
sg8
(lp1223
S'1886996'
p1224
aS'81200278'
p1225
aS'87602030'
p1226
aS'52304977'
p1227
aS'33760909'
p1228
aS'15249775'
p1229
aS'82968410'
p1230
aS'670011'
p1231
aS'78243495'
p1232
aS'7106649'
p1233
aS'84524083'
p1234
aS'58040377'
p1235
aS'16097870'
p1236
aS'31897288'
p1237
aS'63634350'
p1238
aS'27925117'
p1239
aS'22731474'
p1240
aS'34765676'
p1241
aS'5976174'
p1242
aS'85236626'
p1243
aS'72652638'
p1244
aS'83869542'
p1245
aS'43027916'
p1246
aS'81022997'
p1247
aS'99975346'
p1248
aS'57086672'
p1249
aS'51566595'
p1250
aS'48678993'
p1251
aS'5739011'
p1252
aS'58736785'
p1253
aS'35315956'
p1254
aS'61443567'
p1255
asg116
S'32'
p1256
sg118
S'Heuristieken 2'
p1257
sg120
g121
sbag1
(g2
g3
Ntp1258
Rp1259
(dp1260
g7
I1
sg8
(lp1261
g465
ag466
ag467
ag468
ag468
ag469
ag470
ag471
ag472
ag473
ag474
ag475
ag476
ag477
ag478
ag479
ag480
ag480
ag481
ag482
ag483
ag484
ag485
ag486
ag487
ag488
ag489
ag490
ag491
ag492
ag493
ag494
ag495
ag496
ag497
ag498
ag499
ag500
ag501
ag502
asg116
g1199
sg118
g533
sg120
g913
sbag1
(g2
g3
Ntp1262
Rp1263
(dp1264
g7
I0
sg8
(lp1265
S'40791377'
p1266
aS'46701583'
p1267
aS'49683101'
p1268
aS'94467156'
p1269
aS'3685034'
p1270
aS'26857113'
p1271
aS'90067329'
p1272
aS'23798155'
p1273
aS'5976174'
p1274
aS'77240949'
p1275
aS'85236626'
p1276
aS'38296757'
p1277
aS'33252501'
p1278
aS'63111000'
p1279
aS'27187154'
p1280
aS'61518436'
p1281
aS'67625383'
p1282
aS'37744525'
p1283
aS'39459642'
p1284
aS'15051051'
p1285
aS'56988998'
p1286
aS'2079771'
p1287
asg116
S'22'
p1288
sg118
S'Machine Learning'
p1289
sg120
g121
sbag1
(g2
g3
Ntp1290
Rp1291
(dp1292
g7
I0
sg8
(lp1293
S'52311353'
p1294
aS'93023961'
p1295
aS'81200278'
p1296
aS'91196968'
p1297
aS'50143947'
p1298
aS'74131924'
p1299
aS'45414528'
p1300
aS'19337738'
p1301
aS'99453514'
p1302
aS'87314964'
p1303
aS'66122625'
p1304
aS'87900893'
p1305
aS'13116738'
p1306
aS'37110913'
p1307
aS'17823206'
p1308
aS'21964491'
p1309
aS'81022997'
p1310
aS'51566595'
p1311
aS'13996448'
p1312
aS'37744525'
p1313
aS'25330192'
p1314
aS'68360259'
p1315
aS'59753700'
p1316
aS'70878567'
p1317
aS'97136582'
p1318
aS'22323043'
p1319
aS'98780382'
p1320
asg116
S'27'
p1321
sg118
S'Data Mining'
p1322
sg120
g121
sbag1
(g2
g3
Ntp1323
Rp1324
(dp1325
g7
I1
sg8
g1293
sg116
g1321
sg118
g1322
sg120
g121
sbag1
(g2
g3
Ntp1326
Rp1327
(dp1328
g7
I1
sg8
(lp1329
g918
ag919
ag920
ag921
ag922
ag923
ag924
ag925
ag926
ag927
ag928
ag929
ag930
ag931
ag932
ag933
ag934
ag935
asg116
g1059
sg118
g937
sg120
g913
sbag1
(g2
g3
Ntp1330
Rp1331
(dp1332
g7
I0
sg8
g942
sg116
g968
sg118
g969
sg120
g121
sbag1
(g2
g3
Ntp1333
Rp1334
(dp1335
g7
I1
sg8
g1265
sg116
g1288
sg118
g1289
sg120
g121
sbag1
(g2
g3
Ntp1336
Rp1337
(dp1338
g7
I1
sg8
g1102
sg116
g1142
sg118
g1143
sg120
g121
sbag1
(g2
g3
Ntp1339
Rp1340
(dp1341
g7
I1
sg8
(lp1342
g871
ag872
ag873
ag874
ag875
ag876
ag877
ag878
ag879
ag880
ag881
ag882
ag883
ag884
ag885
ag886
ag887
ag888
ag889
ag890
ag891
ag892
ag893
ag894
ag895
ag896
ag897
ag898
ag899
ag900
ag901
ag902
ag903
ag904
ag905
asg116
g974
sg118
g907
sg120
g938
sbag1
(g2
g3
Ntp1343
Rp1344
(dp1345
g7
I2
sg8
(lp1346
g503
ag504
ag505
ag506
ag507
ag508
ag509
ag510
ag511
ag512
ag513
ag514
ag515
ag516
ag517
ag518
ag519
ag520
ag521
ag522
ag523
ag524
ag525
ag526
ag527
ag528
ag529
ag530
ag531
asg116
g1204
sg118
g533
sg120
g938
sbag1
(g2
g3
Ntp1347
Rp1348
(dp1349
g7
I1
sg8
(lp1350
g563
ag564
ag565
ag566
ag567
ag568
ag569
ag570
ag571
ag572
ag573
ag574
ag575
ag576
ag577
ag578
ag579
ag580
ag581
asg116
S'25'
p1351
sg118
g583
sg120
g913
sbag1
(g2
g3
Ntp1352
Rp1353
(dp1354
g7
I0
sg8
(lp1355
g538
ag539
ag540
ag541
ag542
ag543
ag544
ag545
ag546
ag547
ag548
ag549
ag550
ag551
ag552
ag553
ag554
ag555
ag556
ag557
ag558
ag559
ag560
ag561
ag562
asg116
g1351
sg118
g583
sg120
g913
sbag1
(g2
g3
Ntp1356
Rp1357
(dp1358
g7
I0
sg8
(lp1359
S'1886996'
p1360
aS'70844780'
p1361
aS'78136904'
p1362
aS'27064249'
p1363
aS'86807027'
p1364
aS'3168419'
p1365
aS'75997788'
p1366
aS'23547619'
p1367
aS'62613937'
p1368
aS'47477884'
p1369
aS'72683344'
p1370
aS'72577292'
p1371
aS'20883994'
p1372
aS'72665524'
p1373
aS'60352393'
p1374
aS'92665222'
p1375
aS'40633534'
p1376
aS'28618400'
p1377
aS'39429093'
p1378
aS'14847953'
p1379
asg116
S'20'
p1380
sg118
S'Advanced Heuristics'
p1381
sg120
g121
sbag1
(g2
g3
Ntp1382
Rp1383
(dp1384
g7
I1
sg8
(lp1385
g1370
ag1371
ag1372
ag1373
ag1374
ag1375
ag1376
ag1377
ag1378
ag1379
asg116
S'10'
p1386
sg118
g1381
sg120
g938
sbag1
(g2
g3
Ntp1387
Rp1388
(dp1389
g7
I2
sg8
(lp1390
S'48678993'
p1391
aS'76661016'
p1392
aS'78821918'
p1393
aS'37770881'
p1394
aS'25106480'
p1395
aS'84449005'
p1396
asg116
S'15'
p1397
sg118
S'Project Genetic Algorithms'
p1398
sg120
g938
sbag1
(g2
g3
Ntp1399
Rp1400
(dp1401
g7
I3
sg8
(lp1402
g246
asg116
S'20'
p1403
sg118
g248
sg120
g938
sbag1
(g2
g3
Ntp1404
Rp1405
(dp1406
g7
I0
sg8
(lp1407
sg116
S'15'
p1408
sg118
g1051
sg120
g913
sbag1
(g2
g3
Ntp1409
Rp1410
(dp1411
g7
I0
sg8
(lp1412
g1360
ag1361
ag1362
ag1363
ag1364
ag1365
ag1366
ag1367
ag1368
ag1369
asg116
g1386
sg118
g1381
sg120
g938
sbag1
(g2
g3
Ntp1413
Rp1414
(dp1415
g7
I1
sg8
(lp1416
sg116
S'15'
p1417
sg118
g1051
sg120
g938
sbag1
(g2
g3
Ntp1418
Rp1419
(dp1420
g7
I1
sg8
(lp1421
S'62356458'
p1422
aS'73823548'
p1423
aS'75005528'
p1424
aS'3685034'
p1425
aS'1766560'
p1426
aS'86291592'
p1427
aS'11068043'
p1428
aS'84110134'
p1429
aS'13092455'
p1430
aS'22731474'
p1431
aS'32044893'
p1432
aS'7308727'
p1433
aS'19662602'
p1434
aS'73236988'
p1435
aS'74182182'
p1436
asg116
S'15'
p1437
sg118
S'Project Numerical Recipes'
p1438
sg120
g938
sbag1
(g2
g3
Ntp1439
Rp1440
(dp1441
g7
I1
sg8
(lp1442
g206
ag207
ag208
ag209
ag210
ag211
ag212
ag213
ag214
ag215
ag216
ag217
ag218
ag219
ag220
ag221
ag222
ag223
ag224
ag225
asg116
g1403
sg118
g248
sg120
g938
sbag1
(g2
g3
Ntp1443
Rp1444
(dp1445
g7
I2
sg8
(lp1446
g405
ag406
ag407
ag408
ag409
ag410
ag411
ag412
ag413
ag414
ag415
ag416
ag417
ag418
asg116
S'20'
p1447
sg118
g420
sg120
g938
sbag1
(g2
g3
Ntp1448
Rp1449
(dp1450
g7
I6
sg8
(lp1451
sg116
S'0'
p1452
sg118
S'empty'
p1453
sg120
g121
sbag1
(g2
g3
Ntp1454
Rp1455
(dp1456
g7
I0
sg8
(lp1457
g983
ag984
ag985
ag986
ag987
ag988
ag989
ag990
ag991
ag992
asg116
S'10'
p1458
sg118
g1006
sg120
g913
sbag1
(g2
g3
Ntp1459
Rp1460
(dp1461
g7
I0
sg8
(lp1462
g365
ag366
ag367
ag368
ag369
ag370
ag371
ag372
ag373
ag374
ag375
ag376
ag377
ag378
ag379
ag380
ag381
ag382
ag383
ag384
asg116
g1447
sg118
g420
sg120
g938
sbag1
(g2
g3
Ntp1463
Rp1464
(dp1465
g7
I2
sg8
g1451
sg116
g1452
sg118
g1453
sg120
g121
sbag1
(g2
g3
Ntp1466
Rp1467
(dp1468
g7
I0
sg8
g1451
sg116
g1452
sg118
g1453
sg120
g121
sbag1
(g2
g3
Ntp1469
Rp1470
(dp1471
g7
I3
sg8
(lp1472
g246
asg116
S'20'
p1473
sg118
g248
sg120
g913
sbag1
(g2
g3
Ntp1474
Rp1475
(dp1476
g7
I2
sg8
(lp1477
g1314
ag1315
ag1316
ag1317
ag1318
ag1319
ag1320
asg116
S'10'
p1478
sg118
g1322
sg120
g913
sbag1
(g2
g3
Ntp1479
Rp1480
(dp1481
g7
I0
sg8
(lp1482
g186
ag187
ag188
ag189
ag190
ag191
ag192
ag193
ag194
ag195
ag196
ag197
ag198
ag199
ag200
ag201
ag202
ag203
ag204
ag205
asg116
g1403
sg118
g248
sg120
g938
sbag1
(g2
g3
Ntp1483
Rp1484
(dp1485
g7
I0
sg8
(lp1486
sg116
S'15'
p1487
sg118
S'Zoeken, sturen en bewegen'
p1488
sg120
g938
sbag1
(g2
g3
Ntp1489
Rp1490
(dp1491
g7
I8
sg8
g1451
sg116
g1452
sg118
g1453
sg120
g121
sbag1
(g2
g3
Ntp1492
Rp1493
(dp1494
g7
I2
sg8
(lp1495
g405
ag406
ag407
ag408
ag409
ag410
ag411
ag412
ag413
ag414
ag415
ag416
ag417
ag418
asg116
S'20'
p1496
sg118
g420
sg120
g913
sbag1
(g2
g3
Ntp1497
Rp1498
(dp1499
g7
I1
sg8
(lp1500
g993
ag994
ag995
ag996
ag997
ag998
ag999
ag1000
ag1001
ag1002
asg116
S'10'
p1501
sg118
g1006
sg120
g938
sbag1
(g2
g3
Ntp1502
Rp1503
(dp1504
g7
I1
sg8
(lp1505
g1172
ag1173
ag1174
ag1175
ag1176
ag1177
ag1178
ag1179
ag1180
ag1181
ag1182
ag1183
ag1184
ag1185
ag1186
ag1187
ag1188
ag1189
asg116
S'20'
p1506
sg118
g1191
sg120
g913
sbag1
(g2
g3
Ntp1507
Rp1508
(dp1509
g7
I2
sg8
(lp1510
g348
ag349
ag350
ag351
ag352
asg116
S'20'
p1511
sg118
g354
sg120
g913
sbag1
(g2
g3
Ntp1512
Rp1513
(dp1514
g7
I0
sg8
(lp1515
g308
ag309
ag310
ag311
ag312
ag313
ag314
ag315
ag316
ag317
ag318
ag319
ag320
ag321
ag322
ag323
ag324
ag325
ag326
ag327
asg116
g1511
sg118
g354
sg120
g913
sbag1
(g2
g3
Ntp1516
Rp1517
(dp1518
g7
I0
sg8
(lp1519
g1294
ag1295
ag1296
ag1297
ag1298
ag1299
ag1300
ag1301
ag1302
ag1303
asg116
g1478
sg118
g1322
sg120
g913
sbag1
(g2
g3
Ntp1520
Rp1521
(dp1522
g7
I3
sg8
g1451
sg116
g1452
sg118
g1453
sg120
g121
sbag1
(g2
g3
Ntp1523
Rp1524
(dp1525
g7
I2
sg8
(lp1526
g1003
ag1004
asg116
g1501
sg118
g1006
sg120
g938
sbag1
(g2
g3
Ntp1527
Rp1528
(dp1529
g7
I2
sg8
(lp1530
S'60352393'
p1531
aS'40343779'
p1532
aS'44901052'
p1533
aS'4709948'
p1534
aS'64246605'
p1535
aS'77392404'
p1536
aS'26207525'
p1537
aS'56121590'
p1538
aS'19058315'
p1539
aS'87830198'
p1540
aS'81022997'
p1541
aS'66120270'
p1542
aS'48678993'
p1543
aS'37744525'
p1544
aS'25330192'
p1545
aS'28618400'
p1546
aS'34243356'
p1547
aS'12170832'
p1548
aS'29640619'
p1549
aS'56191333'
p1550
asg116
S'20'
p1551
sg118
S'Netwerken en systeembeveiliging'
p1552
sg120
g938
sbag1
(g2
g3
Ntp1553
Rp1554
(dp1555
g7
I2
sg8
(lp1556
sg116
g1487
sg118
g1488
sg120
g938
sbag1
(g2
g3
Ntp1557
Rp1558
(dp1559
g7
I1
sg8
(lp1560
g1244
ag1245
ag1246
ag1247
ag1248
ag1249
ag1250
ag1251
ag1252
ag1253
ag1254
ag1255
asg116
S'20'
p1561
sg118
g1257
sg120
g913
sbag1
(g2
g3
Ntp1562
Rp1563
(dp1564
g7
I1
sg8
(lp1565
S'1048485'
p1566
aS'535689'
p1567
aS'38499176'
p1568
aS'59887191'
p1569
aS'86291592'
p1570
aS'21677389'
p1571
aS'1696500'
p1572
aS'16912993'
p1573
aS'72586808'
p1574
aS'30195935'
p1575
aS'75664412'
p1576
aS'85284256'
p1577
aS'31247305'
p1578
aS'72665524'
p1579
aS'36903574'
p1580
aS'123355'
p1581
aS'3883025'
p1582
aS'4353500'
p1583
aS'25557516'
p1584
aS'7308727'
p1585
asg116
g1551
sg118
g1552
sg120
g938
sbag1
(g2
g3
Ntp1586
Rp1587
(dp1588
g7
I1
sg8
(lp1589
g385
ag386
ag387
ag388
ag389
ag390
ag391
ag392
ag393
ag394
ag395
ag396
ag397
ag398
ag399
ag400
ag401
ag402
ag403
ag404
asg116
g1447
sg118
g420
sg120
g938
sbag1
(g2
g3
Ntp1590
Rp1591
(dp1592
g7
I2
sg8
(lp1593
g808
ag809
ag810
ag811
ag812
ag813
ag814
ag815
ag816
ag817
ag818
asg116
S'20'
p1594
sg118
g820
sg120
g913
sbag1
(g2
g3
Ntp1595
Rp1596
(dp1597
g7
I1
sg8
(lp1598
g1123
ag1124
ag1125
ag1126
ag1127
ag1128
ag1129
ag1130
ag1131
ag1132
ag1133
ag1134
ag1135
ag1136
ag1137
ag1138
ag1139
ag1140
ag1141
asg116
S'20'
p1599
sg118
g1143
sg120
g913
sbag1
(g2
g3
Ntp1600
Rp1601
(dp1602
g7
I2
sg8
(lp1603
g1003
ag1004
asg116
g1458
sg118
g1006
sg120
g913
sbag1
(g2
g3
Ntp1604
Rp1605
(dp1606
g7
I0
sg8
(lp1607
g308
ag309
ag310
ag311
ag312
ag313
ag314
ag315
ag316
ag317
ag318
ag319
ag320
ag321
ag322
ag323
ag324
ag325
ag326
ag327
asg116
S'20'
p1608
sg118
g354
sg120
g938
sbag1
(g2
g3
Ntp1609
Rp1610
(dp1611
g7
I0
sg8
(lp1612
g983
ag984
ag985
ag986
ag987
ag988
ag989
ag990
ag991
ag992
asg116
g1501
sg118
g1006
sg120
g938
sbag1
(g2
g3
Ntp1613
Rp1614
(dp1615
g7
I0
sg8
(lp1616
S'82066165'
p1617
aS'8522855'
p1618
aS'69459473'
p1619
aS'88737765'
p1620
aS'87602030'
p1621
aS'66701209'
p1622
aS'41644639'
p1623
aS'46701583'
p1624
aS'51673172'
p1625
aS'14398123'
p1626
aS'5526560'
p1627
aS'94467156'
p1628
aS'34773179'
p1629
aS'25994016'
p1630
aS'74361881'
p1631
asg116
g1397
sg118
g1398
sg120
g938
sbag1
(g2
g3
Ntp1632
Rp1633
(dp1634
g7
I0
sg8
(lp1635
g1224
ag1225
ag1226
ag1227
ag1228
ag1229
ag1230
ag1231
ag1232
ag1233
ag1234
ag1235
ag1236
ag1237
ag1238
ag1239
ag1240
ag1241
ag1242
ag1243
asg116
g1561
sg118
g1257
sg120
g913
sbag1
(g2
g3
Ntp1636
Rp1637
(dp1638
g7
I1
sg8
(lp1639
g1304
ag1305
ag1306
ag1307
ag1308
ag1309
ag1310
ag1311
ag1312
ag1313
asg116
S'10'
p1640
sg118
g1322
sg120
g938
sbag1
(g2
g3
Ntp1641
Rp1642
(dp1643
g7
I1
sg8
(lp1644
g328
ag329
ag330
ag331
ag332
ag333
ag334
ag335
ag336
ag337
ag338
ag339
ag340
ag341
ag342
ag343
ag344
ag345
ag346
ag347
asg116
g1511
sg118
g354
sg120
g913
sbag1
(g2
g3
Ntp1645
Rp1646
(dp1647
g7
I2
sg8
(lp1648
S'47477884'
p1649
aS'77960666'
p1650
aS'63634350'
p1651
aS'44391517'
p1652
aS'86000192'
p1653
aS'56749879'
p1654
aS'53585410'
p1655
aS'26857113'
p1656
aS'44671041'
p1657
aS'63096281'
p1658
aS'88519892'
p1659
aS'85284256'
p1660
aS'2416751'
p1661
aS'36903574'
p1662
aS'64947290'
p1663
aS'85236626'
p1664
aS'20618153'
p1665
aS'23215240'
p1666
aS'37279234'
p1667
aS'62105897'
p1668
asg116
S'20'
p1669
sg118
S'Programmeren in Java 2'
p1670
sg120
g938
sbag1
(g2
g3
Ntp1671
Rp1672
(dp1673
g7
I10
sg8
g1451
sg116
g1452
sg118
g1453
sg120
g121
sbag1
(g2
g3
Ntp1674
Rp1675
(dp1676
g7
I1
sg8
(lp1677
sg116
g1408
sg118
g1051
sg120
g913
sbag1
(g2
g3
Ntp1678
Rp1679
(dp1680
g7
I2
sg8
(lp1681
g226
ag227
ag228
ag229
ag230
ag231
ag232
ag233
ag234
ag235
ag236
ag237
ag238
ag239
ag240
ag241
ag242
ag243
ag244
ag245
asg116
g1403
sg118
g248
sg120
g938
sbag1
(g2
g3
Ntp1682
Rp1683
(dp1684
g7
I0
sg8
(lp1685
S'82689818'
p1686
aS'81385263'
p1687
aS'51741554'
p1688
aS'70844780'
p1689
aS'97135019'
p1690
aS'8522855'
p1691
aS'82872148'
p1692
aS'81200278'
p1693
aS'18266644'
p1694
aS'70939718'
p1695
aS'62736669'
p1696
aS'7957843'
p1697
aS'5590289'
p1698
aS'63573738'
p1699
aS'57467488'
p1700
aS'53267490'
p1701
aS'59075181'
p1702
aS'33930505'
p1703
aS'54772132'
p1704
aS'14398123'
p1705
asg116
g1551
sg118
g1552
sg120
g938
sbag1
(g2
g3
Ntp1706
Rp1707
(dp1708
g7
I1
sg8
(lp1709
g206
ag207
ag208
ag209
ag210
ag211
ag212
ag213
ag214
ag215
ag216
ag217
ag218
ag219
ag220
ag221
ag222
ag223
ag224
ag225
asg116
g1473
sg118
g248
sg120
g913
sbag1
(g2
g3
Ntp1710
Rp1711
(dp1712
g7
I1
sg8
(lp1713
g1123
ag1124
ag1125
ag1126
ag1127
ag1128
ag1129
ag1130
ag1131
ag1132
ag1133
ag1134
ag1135
ag1136
ag1137
ag1138
ag1139
ag1140
ag1141
asg116
S'20'
p1714
sg118
g1143
sg120
g938
sbag1
(g2
g3
Ntp1715
Rp1716
(dp1717
g7
I0
sg8
(lp1718
S'13284244'
p1719
aS'42778953'
p1720
aS'63939720'
p1721
aS'34691309'
p1722
aS'77831658'
p1723
aS'86807027'
p1724
aS'7957843'
p1725
aS'19214659'
p1726
aS'63573738'
p1727
aS'37419523'
p1728
aS'40911986'
p1729
aS'14941752'
p1730
aS'48308205'
p1731
aS'72895450'
p1732
aS'6939933'
p1733
asg116
g1437
sg118
g1438
sg120
g938
sbag1
(g2
g3
Ntp1734
Rp1735
(dp1736
g7
I5
sg8
(lp1737
S'94955328'
p1738
aS'90296821'
p1739
aS'4709948'
p1740
aS'58469172'
p1741
aS'68601184'
p1742
aS'92977271'
p1743
aS'79167252'
p1744
aS'17823206'
p1745
aS'39905995'
p1746
aS'4921119'
p1747
aS'83415514'
p1748
aS'47982619'
p1749
aS'88263855'
p1750
aS'37399898'
p1751
aS'64053722'
p1752
aS'34262212'
p1753
aS'21964491'
p1754
aS'20830477'
p1755
aS'97019450'
p1756
aS'73196865'
p1757
aS'63111000'
p1758
aS'27187154'
p1759
aS'6913074'
p1760
aS'8464817'
p1761
aS'51791169'
p1762
aS'77896638'
p1763
aS'23983476'
p1764
aS'64600457'
p1765
aS'22288615'
p1766
aS'23391676'
p1767
aS'94687383'
p1768
aS'6723948'
p1769
aS'55474917'
p1770
aS'13996448'
p1771
aS'37744525'
p1772
aS'80135353'
p1773
aS'39459642'
p1774
aS'2550487'
p1775
aS'79879876'
p1776
aS'7386961'
p1777
aS'9332762'
p1778
aS'10698627'
p1779
aS'29640619'
p1780
aS'41153310'
p1781
aS'61443567'
p1782
aS'70072978'
p1783
aS'9731271'
p1784
aS'12782624'
p1785
aS'48503689'
p1786
aS'23658570'
p1787
asg116
g1669
sg118
g1670
sg120
g938
sbag1
(g2
g3
Ntp1788
Rp1789
(dp1790
g7
I0
sg8
(lp1791
g1103
ag1104
ag1105
ag1106
ag1107
ag1108
ag1109
ag1110
ag1111
ag1112
ag1113
ag1114
ag1115
ag1116
ag1117
ag1118
ag1119
ag1120
ag1121
ag1122
asg116
g1714
sg118
g1143
sg120
g938
sbag1
(g2
g3
Ntp1792
Rp1793
(dp1794
g7
I2
sg8
(lp1795
g348
ag349
ag350
ag351
ag352
asg116
g1608
sg118
g354
sg120
g938
sbag1
(g2
g3
Ntp1796
Rp1797
(dp1798
g7
I0
sg8
(lp1799
S'54395877'
p1800
aS'41585485'
p1801
aS'28943658'
p1802
aS'73893840'
p1803
aS'23257088'
p1804
aS'91196968'
p1805
aS'86988337'
p1806
aS'86807027'
p1807
aS'22826928'
p1808
aS'60661905'
p1809
aS'96054456'
p1810
aS'27582862'
p1811
aS'15249775'
p1812
aS'46701583'
p1813
aS'66433883'
p1814
aS'3678531'
p1815
aS'64393888'
p1816
aS'93566383'
p1817
aS'670011'
p1818
aS'7492204'
p1819
asg116
g1669
sg118
g1670
sg120
g938
sbag1
(g2
g3
Ntp1820
Rp1821
(dp1822
g7
I0
sg8
(lp1823
g1103
ag1104
ag1105
ag1106
ag1107
ag1108
ag1109
ag1110
ag1111
ag1112
ag1113
ag1114
ag1115
ag1116
ag1117
ag1118
ag1119
ag1120
ag1121
ag1122
asg116
g1599
sg118
g1143
sg120
g913
sbag1
(g2
g3
Ntp1824
Rp1825
(dp1826
g7
I9
sg8
g1451
sg116
g1452
sg118
g1453
sg120
g121
sbag1
(g2
g3
Ntp1827
Rp1828
(dp1829
g7
I2
sg8
(lp1830
g226
ag227
ag228
ag229
ag230
ag231
ag232
ag233
ag234
ag235
ag236
ag237
ag238
ag239
ag240
ag241
ag242
ag243
ag244
ag245
asg116
g1473
sg118
g248
sg120
g913
sbag1
(g2
g3
Ntp1831
Rp1832
(dp1833
g7
I0
sg8
(lp1834
sg116
g1417
sg118
g1051
sg120
g938
sbag1
(g2
g3
Ntp1835
Rp1836
(dp1837
g7
I0
sg8
(lp1838
g186
ag187
ag188
ag189
ag190
ag191
ag192
ag193
ag194
ag195
ag196
ag197
ag198
ag199
ag200
ag201
ag202
ag203
ag204
ag205
asg116
g1473
sg118
g248
sg120
g913
sbag1
(g2
g3
Ntp1839
Rp1840
(dp1841
g7
I1
sg8
(lp1842
g993
ag994
ag995
ag996
ag997
ag998
ag999
ag1000
ag1001
ag1002
asg116
g1458
sg118
g1006
sg120
g913
sbag1
(g2
g3
Ntp1843
Rp1844
(dp1845
g7
I7
sg8
g1451
sg116
g1452
sg118
g1453
sg120
g121
sbag1
(g2
g3
Ntp1846
Rp1847
(dp1848
g7
I1
sg8
(lp1849
sg116
g1487
sg118
g1488
sg120
g938
sbag1
(g2
g3
Ntp1850
Rp1851
(dp1852
g7
I1
sg8
g1451
sg116
g1452
sg118
g1453
sg120
g121
sbag1
(g2
g3
Ntp1853
Rp1854
(dp1855
g7
I0
sg8
(lp1856
g768
ag769
ag770
ag771
ag772
ag773
ag774
ag775
ag776
ag777
ag778
ag779
ag780
ag781
ag782
ag783
ag784
ag785
ag786
ag787
asg116
g1594
sg118
g820
sg120
g913
sbag1
(g2
g3
Ntp1857
Rp1858
(dp1859
g7
I4
sg8
g1737
sg116
g1669
sg118
g1670
sg120
g938
sbag1
(g2
g3
Ntp1860
Rp1861
(dp1862
g7
I5
sg8
g1451
sg116
g1452
sg118
g1453
sg120
g121
sbag1
(g2
g3
Ntp1863
Rp1864
(dp1865
g7
I0
sg8
(lp1866
g1152
ag1153
ag1154
ag1155
ag1156
ag1157
ag1158
ag1159
ag1160
ag1161
ag1162
ag1163
ag1164
ag1165
ag1166
ag1167
ag1168
ag1169
ag1170
ag1171
asg116
g1506
sg118
g1191
sg120
g913
sbag1
(g2
g3
Ntp1867
Rp1868
(dp1869
g7
I2
sg8
(lp1870
g1314
ag1315
ag1316
ag1317
ag1318
ag1319
ag1320
asg116
g1640
sg118
g1322
sg120
g938
sbag1
(g2
g3
Ntp1871
Rp1872
(dp1873
g7
I3
sg8
(lp1874
S'97136582'
p1875
aS'62363761'
p1876
aS'9731271'
p1877
aS'72456780'
p1878
asg116
g1551
sg118
g1552
sg120
g938
sbag1
(g2
g3
Ntp1879
Rp1880
(dp1881
g7
I0
sg8
(lp1882
g365
ag366
ag367
ag368
ag369
ag370
ag371
ag372
ag373
ag374
ag375
ag376
ag377
ag378
ag379
ag380
ag381
ag382
ag383
ag384
asg116
g1496
sg118
g420
sg120
g913
sbag1
(g2
g3
Ntp1883
Rp1884
(dp1885
g7
I1
sg8
(lp1886
S'55480737'
p1887
aS'24613625'
p1888
aS'68409833'
p1889
aS'99283252'
p1890
aS'27925117'
p1891
aS'86180471'
p1892
aS'75680261'
p1893
aS'58253841'
p1894
aS'27950803'
p1895
aS'25077484'
p1896
aS'14179347'
p1897
aS'40633534'
p1898
aS'76924297'
p1899
aS'87830198'
p1900
aS'41578612'
p1901
asg116
g1397
sg118
g1398
sg120
g938
sbag1
(g2
g3
Ntp1902
Rp1903
(dp1904
g7
I3
sg8
g1737
sg116
g1669
sg118
g1670
sg120
g938
sbag1
(g2
g3
Ntp1905
Rp1906
(dp1907
g7
I4
sg8
g1451
sg116
g1452
sg118
g1453
sg120
g121
sbag1
(g2
g3
Ntp1908
Rp1909
(dp1910
g7
I1
sg8
(lp1911
g1304
ag1305
ag1306
ag1307
ag1308
ag1309
ag1310
ag1311
ag1312
ag1313
asg116
g1478
sg118
g1322
sg120
g913
sbag1
(g2
g3
Ntp1912
Rp1913
(dp1914
g7
I1
sg8
(lp1915
g328
ag329
ag330
ag331
ag332
ag333
ag334
ag335
ag336
ag337
ag338
ag339
ag340
ag341
ag342
ag343
ag344
ag345
ag346
ag347
asg116
g1608
sg118
g354
sg120
g938
sbag1
(g2
g3
Ntp1916
Rp1917
(dp1918
g7
I1
sg8
(lp1919
g788
ag789
ag790
ag791
ag792
ag793
ag794
ag795
ag796
ag797
ag798
ag799
ag800
ag801
ag802
ag803
ag804
ag805
ag806
ag807
asg116
g1594
sg118
g820
sg120
g913
sbag1
(g2
g3
Ntp1920
Rp1921
(dp1922
g7
I1
sg8
(lp1923
g385
ag386
ag387
ag388
ag389
ag390
ag391
ag392
ag393
ag394
ag395
ag396
ag397
ag398
ag399
ag400
ag401
ag402
ag403
ag404
asg116
g1496
sg118
g420
sg120
g913
sbag1
(g2
g3
Ntp1924
Rp1925
(dp1926
g7
I1
sg8
(lp1927
S'54772132'
p1928
aS'45414528'
p1929
aS'70113753'
p1930
aS'58332004'
p1931
aS'51593625'
p1932
aS'1048485'
p1933
aS'34900967'
p1934
aS'2317551'
p1935
aS'31416266'
p1936
aS'88597745'
p1937
aS'94467156'
p1938
aS'15902055'
p1939
aS'10702778'
p1940
aS'38499176'
p1941
aS'92778619'
p1942
aS'33776961'
p1943
aS'99272880'
p1944
aS'62701040'
p1945
aS'58040377'
p1946
aS'86291592'
p1947
asg116
g1669
sg118
g1670
sg120
g938
sbag1
(g2
g3
Ntp1948
Rp1949
(dp1950
g7
I0
sg8
(lp1951
g1294
ag1295
ag1296
ag1297
ag1298
ag1299
ag1300
ag1301
ag1302
ag1303
asg116
g1640
sg118
g1322
sg120
g938
sbag1
(g2
g3
Ntp1952
Rp1953
(dp1954
g7
I2
sg8
(lp1955
S'81022997'
p1956
aS'21070547'
p1957
aS'81116418'
p1958
aS'32183908'
p1959
aS'60312776'
p1960
aS'13996448'
p1961
aS'42406214'
p1962
aS'28618400'
p1963
aS'88752563'
p1964
aS'90103047'
p1965
aS'2550487'
p1966
aS'89338938'
p1967
aS'12430748'
p1968
aS'48503689'
p1969
asg116
g1437
sg118
g1438
sg120
g938
sbag1
(g2
g3
Ntp1970
Rp1971
(dp1972
g7
I11
sg8
g1451
sg116
g1452
sg118
g1453
sg120
g121
sba.